Component: ARM Compiler 5.06 update 6 (build 750) Tool: armlink [4d35ed]

==============================================================================

Section Cross References

    epdtest.o(i._Z12testdrawtextPct) refers to epdtest.o(.bss) for display
    epdtest.o(i.__sti___9_EPDTest_c_display) refers to adafruit_il0373.o(i._ZN15Adafruit_IL0373C1EiiaaaaaP8SPIClass) for Adafruit_IL0373::Adafruit_IL0373(int, int, signed char, signed char, signed char, signed char, signed char, SPIClass*)
    epdtest.o(i.__sti___9_EPDTest_c_display) refers to aeabi_atexit.o(.text) for __aeabi_atexit
    epdtest.o(i.__sti___9_EPDTest_c_display) refers to spi.o(.data) for SPI
    epdtest.o(i.__sti___9_EPDTest_c_display) refers to epdtest.o(.bss) for display
    epdtest.o(i.__sti___9_EPDTest_c_display) refers to epdtest.o(i._ZN15Adafruit_IL0373D1Ev) for Adafruit_IL0373::~Adafruit_IL0373()
    epdtest.o(i.main) refers to adafruit_il0373.o(i._ZN15Adafruit_IL03735beginEb) for Adafruit_IL0373::begin(bool)
    epdtest.o(i.main) refers to adafruit_epd.o(i._ZN12Adafruit_EPD11clearBufferEv) for Adafruit_EPD::clearBuffer()
    epdtest.o(i.main) refers to epdtest.o(i._Z12testdrawtextPct) for testdrawtext(char*, unsigned short)
    epdtest.o(i.main) refers to adafruit_epd.o(i._ZN12Adafruit_EPD7displayEb) for Adafruit_EPD::display(bool)
    epdtest.o(i.main) refers to adafruit_gfx.o(i._ZN12Adafruit_GFX8drawLineEsssst) for Adafruit_GFX::drawLine(short, short, short, short, unsigned short)
    epdtest.o(i.main) refers to epdtest.o(.bss) for display
    epdtest.o(i.main) refers to epdtest.o(.conststring) for .conststring
    epdtest.o(.ARM.exidx) refers to epdtest.o(i._Z12testdrawtextPct) for i._Z12testdrawtextPct
    epdtest.o(.ARM.exidx) refers to epdtest.o(i.main) for i.main
    epdtest.o(.ARM.exidx) refers to epdtest.o(i.__sti___9_EPDTest_c_display) for i.__sti___9_EPDTest_c_display
    epdtest.o(.init_array) refers to epdtest.o(i.__sti___9_EPDTest_c_display) for __sti___9_EPDTest_c_display
    epdtest.o(.init_array) refers to init_aeabi.o(.text) for __cpp_initialize__aeabi_
    adafruit_epd.o(i._ZN12Adafruit_EPD11EPD_commandEhPKht) refers to adafruit_epd.o(i._ZN12Adafruit_EPD11EPD_commandEhb) for Adafruit_EPD::EPD_command(unsigned char, bool)
    adafruit_epd.o(i._ZN12Adafruit_EPD11EPD_commandEhPKht) refers to adafruit_epd.o(i._ZN12Adafruit_EPD8EPD_dataEPKht) for Adafruit_EPD::EPD_data(const unsigned char*, unsigned short)
    adafruit_epd.o(i._ZN12Adafruit_EPD11EPD_commandEhb) refers to adafruit_epd.o(i._ZN12Adafruit_EPD6csHighEv) for Adafruit_EPD::csHigh()
    adafruit_epd.o(i._ZN12Adafruit_EPD11EPD_commandEhb) refers to adafruit_epd.o(i._ZN12Adafruit_EPD5dcLowEv) for Adafruit_EPD::dcLow()
    adafruit_epd.o(i._ZN12Adafruit_EPD11EPD_commandEhb) refers to adafruit_epd.o(i._ZN12Adafruit_EPD5csLowEv) for Adafruit_EPD::csLow()
    adafruit_epd.o(i._ZN12Adafruit_EPD11EPD_commandEhb) refers to adafruit_epd.o(i._ZN12Adafruit_EPD11SPItransferEh) for Adafruit_EPD::SPItransfer(unsigned char)
    adafruit_epd.o(i._ZN12Adafruit_EPD11SPItransferEh) refers to adafruit_epd.o(i._ZN12Adafruit_EPD5csLowEv) for Adafruit_EPD::csLow()
    adafruit_epd.o(i._ZN12Adafruit_EPD11SPItransferEh) refers to adafruit_epd.o(i._ZN12Adafruit_EPD6csHighEv) for Adafruit_EPD::csHigh()
    adafruit_epd.o(i._ZN12Adafruit_EPD11clearBufferEv) refers to adafruit_mcpsram.o(i._ZN16Adafruit_MCPSRAM5eraseEtth) for Adafruit_MCPSRAM::erase(unsigned short, unsigned short, unsigned char)
    adafruit_epd.o(i._ZN12Adafruit_EPD11clearBufferEv) refers to aeabi_memset.o(.text) for __aeabi_memset
    adafruit_epd.o(i._ZN12Adafruit_EPD11clearBufferEv) refers to rt_memclr.o(.text) for __aeabi_memclr
    adafruit_epd.o(i._ZN12Adafruit_EPD12clearDisplayEv) refers to adafruit_epd.o(i._ZN12Adafruit_EPD11clearBufferEv) for Adafruit_EPD::clearBuffer()
    adafruit_epd.o(i._ZN12Adafruit_EPD12clearDisplayEv) refers to adafruit_epd.o(i._ZN12Adafruit_EPD7displayEb) for Adafruit_EPD::display(bool)
    adafruit_epd.o(i._ZN12Adafruit_EPD15EPD_commandListEPKh) refers to adafruit_epd.o(i._ZN12Adafruit_EPD11EPD_commandEhPKht) for Adafruit_EPD::EPD_command(unsigned char, const unsigned char*, unsigned short)
    adafruit_epd.o(i._ZN12Adafruit_EPD5beginEb) refers to adafruit_epd.o(i._ZN12Adafruit_EPD14setBlackBufferEab) for Adafruit_EPD::setBlackBuffer(signed char, bool)
    adafruit_epd.o(i._ZN12Adafruit_EPD5beginEb) refers to adafruit_epd.o(i._ZN12Adafruit_EPD14setColorBufferEab) for Adafruit_EPD::setColorBuffer(signed char, bool)
    adafruit_epd.o(i._ZN12Adafruit_EPD5beginEb) refers to adafruit_mcpsram.o(i._ZN16Adafruit_MCPSRAM5beginEv) for Adafruit_MCPSRAM::begin()
    adafruit_epd.o(i._ZN12Adafruit_EPD5beginEb) refers to adafruit_mcpsram.o(i._ZN16Adafruit_MCPSRAM6write8Ethh) for Adafruit_MCPSRAM::write8(unsigned short, unsigned char, unsigned char)
    adafruit_epd.o(i._ZN12Adafruit_EPD5beginEb) refers to adafruit_epd.o(i._ZN12Adafruit_EPD6csHighEv) for Adafruit_EPD::csHigh()
    adafruit_epd.o(i._ZN12Adafruit_EPD5beginEb) refers to adafruit_epd.o(i._ZN12Adafruit_EPD13hardwareResetEv) for Adafruit_EPD::hardwareReset()
    adafruit_epd.o(i._ZN12Adafruit_EPD5csLowEv) refers to adafruit_epd.o(.data) for Adafruit_EPD::_isInTransaction
    adafruit_epd.o(i._ZN12Adafruit_EPD6csHighEv) refers to adafruit_epd.o(.data) for Adafruit_EPD::_isInTransaction
    adafruit_epd.o(i._ZN12Adafruit_EPD7displayEb) refers to adafruit_mcpsram.o(i._ZN16Adafruit_MCPSRAM5csLowEv) for Adafruit_MCPSRAM::csLow()
    adafruit_epd.o(i._ZN12Adafruit_EPD7displayEb) refers to adafruit_epd.o(i._ZN12Adafruit_EPD11SPItransferEh) for Adafruit_EPD::SPItransfer(unsigned char)
    adafruit_epd.o(i._ZN12Adafruit_EPD7displayEb) refers to adafruit_epd.o(i._ZN12Adafruit_EPD6dcHighEv) for Adafruit_EPD::dcHigh()
    adafruit_epd.o(i._ZN12Adafruit_EPD7displayEb) refers to adafruit_epd.o(i._ZN12Adafruit_EPD6csHighEv) for Adafruit_EPD::csHigh()
    adafruit_epd.o(i._ZN12Adafruit_EPD7displayEb) refers to adafruit_mcpsram.o(i._ZN16Adafruit_MCPSRAM6csHighEv) for Adafruit_MCPSRAM::csHigh()
    adafruit_epd.o(i._ZN12Adafruit_EPD8EPD_dataEPKht) refers to adafruit_epd.o(i._ZN12Adafruit_EPD6dcHighEv) for Adafruit_EPD::dcHigh()
    adafruit_epd.o(i._ZN12Adafruit_EPD8EPD_dataEPKht) refers to adafruit_epd.o(i._ZN12Adafruit_EPD11SPItransferEh) for Adafruit_EPD::SPItransfer(unsigned char)
    adafruit_epd.o(i._ZN12Adafruit_EPD8EPD_dataEPKht) refers to adafruit_epd.o(i._ZN12Adafruit_EPD6csHighEv) for Adafruit_EPD::csHigh()
    adafruit_epd.o(i._ZN12Adafruit_EPD8EPD_dataEh) refers to adafruit_epd.o(i._ZN12Adafruit_EPD6csHighEv) for Adafruit_EPD::csHigh()
    adafruit_epd.o(i._ZN12Adafruit_EPD8EPD_dataEh) refers to adafruit_epd.o(i._ZN12Adafruit_EPD6dcHighEv) for Adafruit_EPD::dcHigh()
    adafruit_epd.o(i._ZN12Adafruit_EPD8EPD_dataEh) refers to adafruit_epd.o(i._ZN12Adafruit_EPD5csLowEv) for Adafruit_EPD::csLow()
    adafruit_epd.o(i._ZN12Adafruit_EPD8EPD_dataEh) refers to adafruit_epd.o(i._ZN12Adafruit_EPD11SPItransferEh) for Adafruit_EPD::SPItransfer(unsigned char)
    adafruit_epd.o(i._ZN12Adafruit_EPD9drawPixelEsst) refers to adafruit_mcpsram.o(i._ZN16Adafruit_MCPSRAM5read8Eth) for Adafruit_MCPSRAM::read8(unsigned short, unsigned char)
    adafruit_epd.o(i._ZN12Adafruit_EPD9drawPixelEsst) refers to adafruit_mcpsram.o(i._ZN16Adafruit_MCPSRAM6write8Ethh) for Adafruit_MCPSRAM::write8(unsigned short, unsigned char, unsigned char)
    adafruit_epd.o(i._ZN12Adafruit_EPDC2EiiaaaaaP8SPIClass) refers to adafruit_gfx.o(i._ZN12Adafruit_GFXC2Ess) for Adafruit_GFX::Adafruit_GFX__sub_object(short, short)
    adafruit_epd.o(i._ZN12Adafruit_EPDC2EiiaaaaaP8SPIClass) refers to adafruit_mcpsram.o(i._ZN16Adafruit_MCPSRAMC1EaP8SPIClass) for Adafruit_MCPSRAM::Adafruit_MCPSRAM(signed char, SPIClass*)
    adafruit_epd.o(i._ZN12Adafruit_EPDC2EiiaaaaaP8SPIClass) refers to new.o(i._Znwj) for operator new(unsigned)
    adafruit_epd.o(i._ZN12Adafruit_EPDC2EiiaaaaaP8SPIClass) refers to adafruit_epd.o(.constdata__ZTV12Adafruit_EPD) for vtable for Adafruit_EPD
    adafruit_epd.o(i._ZN12Adafruit_EPDC2EiiaaaaaP8SPIClass) refers to spi.o(.data) for SPI
    adafruit_epd.o(i._ZN12Adafruit_EPDC2Eiiaaaaaaaa) refers to adafruit_gfx.o(i._ZN12Adafruit_GFXC2Ess) for Adafruit_GFX::Adafruit_GFX__sub_object(short, short)
    adafruit_epd.o(i._ZN12Adafruit_EPDC2Eiiaaaaaaaa) refers to adafruit_mcpsram.o(i._ZN16Adafruit_MCPSRAMC1Eaaaa) for Adafruit_MCPSRAM::Adafruit_MCPSRAM(signed char, signed char, signed char, signed char)
    adafruit_epd.o(i._ZN12Adafruit_EPDC2Eiiaaaaaaaa) refers to new.o(i._Znwj) for operator new(unsigned)
    adafruit_epd.o(i._ZN12Adafruit_EPDC2Eiiaaaaaaaa) refers to adafruit_epd.o(.constdata__ZTV12Adafruit_EPD) for vtable for Adafruit_EPD
    adafruit_epd.o(i._ZN12Adafruit_EPDD2Ev) refers to h1_free.o(.text) for free
    adafruit_epd.o(i._ZN12Adafruit_EPDD2Ev) refers to adafruit_epd.o(.constdata__ZTV12Adafruit_EPD) for vtable for Adafruit_EPD
    adafruit_epd.o(.ARM.exidx) refers to adafruit_epd.o(i._ZN12Adafruit_EPDC2Eiiaaaaaaaa) for i._ZN12Adafruit_EPDC2Eiiaaaaaaaa
    adafruit_epd.o(.ARM.exidx) refers to adafruit_epd.o(i._ZN12Adafruit_EPDC2EiiaaaaaP8SPIClass) for i._ZN12Adafruit_EPDC2EiiaaaaaP8SPIClass
    adafruit_epd.o(.ARM.exidx) refers to adafruit_epd.o(i._ZN12Adafruit_EPDD2Ev) for i._ZN12Adafruit_EPDD2Ev
    adafruit_epd.o(.ARM.exidx) refers to adafruit_epd.o(i._ZN12Adafruit_EPD13hardwareResetEv) for i._ZN12Adafruit_EPD13hardwareResetEv
    adafruit_epd.o(.ARM.exidx) refers to adafruit_epd.o(i._ZN12Adafruit_EPD6csHighEv) for i._ZN12Adafruit_EPD6csHighEv
    adafruit_epd.o(.ARM.exidx) refers to adafruit_epd.o(i._ZN12Adafruit_EPD14setColorBufferEab) for i._ZN12Adafruit_EPD14setColorBufferEab
    adafruit_epd.o(.ARM.exidx) refers to adafruit_epd.o(i._ZN12Adafruit_EPD14setBlackBufferEab) for i._ZN12Adafruit_EPD14setBlackBufferEab
    adafruit_epd.o(.ARM.exidx) refers to adafruit_epd.o(i._ZN12Adafruit_EPD5beginEb) for i._ZN12Adafruit_EPD5beginEb
    adafruit_epd.o(.ARM.exidx) refers to adafruit_epd.o(i._ZN12Adafruit_EPD9drawPixelEsst) for i._ZN12Adafruit_EPD9drawPixelEsst
    adafruit_epd.o(.ARM.exidx) refers to adafruit_epd.o(i._ZN12Adafruit_EPD11clearBufferEv) for i._ZN12Adafruit_EPD11clearBufferEv
    adafruit_epd.o(.ARM.exidx) refers to adafruit_epd.o(i._ZN12Adafruit_EPD5csLowEv) for i._ZN12Adafruit_EPD5csLowEv
    adafruit_epd.o(.ARM.exidx) refers to adafruit_epd.o(i._ZN12Adafruit_EPD11SPItransferEh) for i._ZN12Adafruit_EPD11SPItransferEh
    adafruit_epd.o(.ARM.exidx) refers to adafruit_epd.o(i._ZN12Adafruit_EPD6dcHighEv) for i._ZN12Adafruit_EPD6dcHighEv
    adafruit_epd.o(.ARM.exidx) refers to adafruit_epd.o(i._ZN12Adafruit_EPD7displayEb) for i._ZN12Adafruit_EPD7displayEb
    adafruit_epd.o(.ARM.exidx) refers to adafruit_epd.o(i._ZN12Adafruit_EPD12clearDisplayEv) for i._ZN12Adafruit_EPD12clearDisplayEv
    adafruit_epd.o(.ARM.exidx) refers to adafruit_epd.o(i._ZN12Adafruit_EPD8EPD_dataEPKht) for i._ZN12Adafruit_EPD8EPD_dataEPKht
    adafruit_epd.o(.ARM.exidx) refers to adafruit_epd.o(i._ZN12Adafruit_EPD5dcLowEv) for i._ZN12Adafruit_EPD5dcLowEv
    adafruit_epd.o(.ARM.exidx) refers to adafruit_epd.o(i._ZN12Adafruit_EPD11EPD_commandEhb) for i._ZN12Adafruit_EPD11EPD_commandEhb
    adafruit_epd.o(.ARM.exidx) refers to adafruit_epd.o(i._ZN12Adafruit_EPD11EPD_commandEhPKht) for i._ZN12Adafruit_EPD11EPD_commandEhPKht
    adafruit_epd.o(.ARM.exidx) refers to adafruit_epd.o(i._ZN12Adafruit_EPD15EPD_commandListEPKh) for i._ZN12Adafruit_EPD15EPD_commandListEPKh
    adafruit_epd.o(.ARM.exidx) refers to adafruit_epd.o(i._ZN12Adafruit_EPD8EPD_dataEh) for i._ZN12Adafruit_EPD8EPD_dataEh
    adafruit_gfx.o(i._ZN10GFXcanvas110fillScreenEt) refers to aeabi_memset.o(.text) for __aeabi_memset
    adafruit_gfx.o(i._ZN10GFXcanvas113drawFastHLineEssst) refers to adafruit_gfx.o(i._ZNK12Adafruit_GFX6heightEv) for Adafruit_GFX::height() const
    adafruit_gfx.o(i._ZN10GFXcanvas113drawFastHLineEssst) refers to adafruit_gfx.o(i._ZNK12Adafruit_GFX5widthEv) for Adafruit_GFX::width() const
    adafruit_gfx.o(i._ZN10GFXcanvas113drawFastHLineEssst) refers to adafruit_gfx.o(i._ZNK12Adafruit_GFX11getRotationEv) for Adafruit_GFX::getRotation() const
    adafruit_gfx.o(i._ZN10GFXcanvas113drawFastHLineEssst) refers to adafruit_gfx.o(i._ZN10GFXcanvas116drawFastRawHLineEssst) for GFXcanvas1::drawFastRawHLine(short, short, short, unsigned short)
    adafruit_gfx.o(i._ZN10GFXcanvas113drawFastHLineEssst) refers to adafruit_gfx.o(i._ZN10GFXcanvas116drawFastRawVLineEssst) for GFXcanvas1::drawFastRawVLine(short, short, short, unsigned short)
    adafruit_gfx.o(i._ZN10GFXcanvas113drawFastVLineEssst) refers to adafruit_gfx.o(i._ZNK12Adafruit_GFX5widthEv) for Adafruit_GFX::width() const
    adafruit_gfx.o(i._ZN10GFXcanvas113drawFastVLineEssst) refers to adafruit_gfx.o(i._ZNK12Adafruit_GFX6heightEv) for Adafruit_GFX::height() const
    adafruit_gfx.o(i._ZN10GFXcanvas113drawFastVLineEssst) refers to adafruit_gfx.o(i._ZNK12Adafruit_GFX11getRotationEv) for Adafruit_GFX::getRotation() const
    adafruit_gfx.o(i._ZN10GFXcanvas113drawFastVLineEssst) refers to adafruit_gfx.o(i._ZN10GFXcanvas116drawFastRawVLineEssst) for GFXcanvas1::drawFastRawVLine(short, short, short, unsigned short)
    adafruit_gfx.o(i._ZN10GFXcanvas113drawFastVLineEssst) refers to adafruit_gfx.o(i._ZN10GFXcanvas116drawFastRawHLineEssst) for GFXcanvas1::drawFastRawHLine(short, short, short, unsigned short)
    adafruit_gfx.o(i._ZN10GFXcanvas116drawFastRawHLineEssst) refers to adafruit_gfx.o(i._ZNK10GFXcanvas19getBufferEv) for GFXcanvas1::getBuffer() const
    adafruit_gfx.o(i._ZN10GFXcanvas116drawFastRawHLineEssst) refers to aeabi_memset.o(.text) for __aeabi_memset
    adafruit_gfx.o(i._ZN10GFXcanvas116drawFastRawVLineEssst) refers to adafruit_gfx.o(i._ZNK10GFXcanvas19getBufferEv) for GFXcanvas1::getBuffer() const
    adafruit_gfx.o(i._ZN10GFXcanvas1C1Ett) refers to adafruit_gfx.o(i._ZN12Adafruit_GFXC2Ess) for Adafruit_GFX::Adafruit_GFX__sub_object(short, short)
    adafruit_gfx.o(i._ZN10GFXcanvas1C1Ett) refers to h1_alloc.o(.text) for malloc
    adafruit_gfx.o(i._ZN10GFXcanvas1C1Ett) refers to rt_memclr.o(.text) for __aeabi_memclr
    adafruit_gfx.o(i._ZN10GFXcanvas1C1Ett) refers to adafruit_gfx.o(.constdata__ZTV10GFXcanvas1) for vtable for GFXcanvas1
    adafruit_gfx.o(i._ZN10GFXcanvas1D1Ev) refers to h1_free.o(.text) for free
    adafruit_gfx.o(i._ZN10GFXcanvas1D1Ev) refers to adafruit_gfx.o(.constdata__ZTV10GFXcanvas1) for vtable for GFXcanvas1
    adafruit_gfx.o(i._ZN10GFXcanvas810fillScreenEt) refers to aeabi_memset.o(.text) for __aeabi_memset
    adafruit_gfx.o(i._ZN10GFXcanvas813drawFastHLineEssst) refers to adafruit_gfx.o(i._ZNK12Adafruit_GFX6heightEv) for Adafruit_GFX::height() const
    adafruit_gfx.o(i._ZN10GFXcanvas813drawFastHLineEssst) refers to adafruit_gfx.o(i._ZNK12Adafruit_GFX5widthEv) for Adafruit_GFX::width() const
    adafruit_gfx.o(i._ZN10GFXcanvas813drawFastHLineEssst) refers to adafruit_gfx.o(i._ZNK12Adafruit_GFX11getRotationEv) for Adafruit_GFX::getRotation() const
    adafruit_gfx.o(i._ZN10GFXcanvas813drawFastHLineEssst) refers to adafruit_gfx.o(i._ZN10GFXcanvas816drawFastRawHLineEssst) for GFXcanvas8::drawFastRawHLine(short, short, short, unsigned short)
    adafruit_gfx.o(i._ZN10GFXcanvas813drawFastHLineEssst) refers to adafruit_gfx.o(i._ZN10GFXcanvas816drawFastRawVLineEssst) for GFXcanvas8::drawFastRawVLine(short, short, short, unsigned short)
    adafruit_gfx.o(i._ZN10GFXcanvas813drawFastVLineEssst) refers to adafruit_gfx.o(i._ZNK12Adafruit_GFX5widthEv) for Adafruit_GFX::width() const
    adafruit_gfx.o(i._ZN10GFXcanvas813drawFastVLineEssst) refers to adafruit_gfx.o(i._ZNK12Adafruit_GFX6heightEv) for Adafruit_GFX::height() const
    adafruit_gfx.o(i._ZN10GFXcanvas813drawFastVLineEssst) refers to adafruit_gfx.o(i._ZNK12Adafruit_GFX11getRotationEv) for Adafruit_GFX::getRotation() const
    adafruit_gfx.o(i._ZN10GFXcanvas813drawFastVLineEssst) refers to adafruit_gfx.o(i._ZN10GFXcanvas816drawFastRawVLineEssst) for GFXcanvas8::drawFastRawVLine(short, short, short, unsigned short)
    adafruit_gfx.o(i._ZN10GFXcanvas813drawFastVLineEssst) refers to adafruit_gfx.o(i._ZN10GFXcanvas816drawFastRawHLineEssst) for GFXcanvas8::drawFastRawHLine(short, short, short, unsigned short)
    adafruit_gfx.o(i._ZN10GFXcanvas816drawFastRawHLineEssst) refers to aeabi_memset.o(.text) for __aeabi_memset
    adafruit_gfx.o(i._ZN10GFXcanvas8C1Ett) refers to adafruit_gfx.o(i._ZN12Adafruit_GFXC2Ess) for Adafruit_GFX::Adafruit_GFX__sub_object(short, short)
    adafruit_gfx.o(i._ZN10GFXcanvas8C1Ett) refers to h1_alloc.o(.text) for malloc
    adafruit_gfx.o(i._ZN10GFXcanvas8C1Ett) refers to rt_memclr.o(.text) for __aeabi_memclr
    adafruit_gfx.o(i._ZN10GFXcanvas8C1Ett) refers to adafruit_gfx.o(.constdata__ZTV10GFXcanvas8) for vtable for GFXcanvas8
    adafruit_gfx.o(i._ZN10GFXcanvas8D1Ev) refers to h1_free.o(.text) for free
    adafruit_gfx.o(i._ZN10GFXcanvas8D1Ev) refers to adafruit_gfx.o(.constdata__ZTV10GFXcanvas8) for vtable for GFXcanvas8
    adafruit_gfx.o(i._ZN11GFXcanvas1610fillScreenEt) refers to aeabi_memset.o(.text) for __aeabi_memset
    adafruit_gfx.o(i._ZN11GFXcanvas1613drawFastHLineEssst) refers to adafruit_gfx.o(i._ZNK12Adafruit_GFX6heightEv) for Adafruit_GFX::height() const
    adafruit_gfx.o(i._ZN11GFXcanvas1613drawFastHLineEssst) refers to adafruit_gfx.o(i._ZNK12Adafruit_GFX5widthEv) for Adafruit_GFX::width() const
    adafruit_gfx.o(i._ZN11GFXcanvas1613drawFastHLineEssst) refers to adafruit_gfx.o(i._ZNK12Adafruit_GFX11getRotationEv) for Adafruit_GFX::getRotation() const
    adafruit_gfx.o(i._ZN11GFXcanvas1613drawFastHLineEssst) refers to adafruit_gfx.o(i._ZN11GFXcanvas1616drawFastRawHLineEssst) for GFXcanvas16::drawFastRawHLine(short, short, short, unsigned short)
    adafruit_gfx.o(i._ZN11GFXcanvas1613drawFastHLineEssst) refers to adafruit_gfx.o(i._ZN11GFXcanvas1616drawFastRawVLineEssst) for GFXcanvas16::drawFastRawVLine(short, short, short, unsigned short)
    adafruit_gfx.o(i._ZN11GFXcanvas1613drawFastVLineEssst) refers to adafruit_gfx.o(i._ZNK12Adafruit_GFX5widthEv) for Adafruit_GFX::width() const
    adafruit_gfx.o(i._ZN11GFXcanvas1613drawFastVLineEssst) refers to adafruit_gfx.o(i._ZNK12Adafruit_GFX6heightEv) for Adafruit_GFX::height() const
    adafruit_gfx.o(i._ZN11GFXcanvas1613drawFastVLineEssst) refers to adafruit_gfx.o(i._ZNK12Adafruit_GFX11getRotationEv) for Adafruit_GFX::getRotation() const
    adafruit_gfx.o(i._ZN11GFXcanvas1613drawFastVLineEssst) refers to adafruit_gfx.o(i._ZN11GFXcanvas1616drawFastRawVLineEssst) for GFXcanvas16::drawFastRawVLine(short, short, short, unsigned short)
    adafruit_gfx.o(i._ZN11GFXcanvas1613drawFastVLineEssst) refers to adafruit_gfx.o(i._ZN11GFXcanvas1616drawFastRawHLineEssst) for GFXcanvas16::drawFastRawHLine(short, short, short, unsigned short)
    adafruit_gfx.o(i._ZN11GFXcanvas16C1Ett) refers to adafruit_gfx.o(i._ZN12Adafruit_GFXC2Ess) for Adafruit_GFX::Adafruit_GFX__sub_object(short, short)
    adafruit_gfx.o(i._ZN11GFXcanvas16C1Ett) refers to h1_alloc.o(.text) for malloc
    adafruit_gfx.o(i._ZN11GFXcanvas16C1Ett) refers to rt_memclr.o(.text) for __aeabi_memclr
    adafruit_gfx.o(i._ZN11GFXcanvas16C1Ett) refers to adafruit_gfx.o(.constdata__ZTV11GFXcanvas16) for vtable for GFXcanvas16
    adafruit_gfx.o(i._ZN11GFXcanvas16D1Ev) refers to h1_free.o(.text) for free
    adafruit_gfx.o(i._ZN11GFXcanvas16D1Ev) refers to adafruit_gfx.o(.constdata__ZTV11GFXcanvas16) for vtable for GFXcanvas16
    adafruit_gfx.o(i._ZN12Adafruit_GFX10charBoundsEhPsS0_S0_S0_S0_S0_) refers to adafruit_gfx.o(i._Z18pgm_read_glyph_ptrPK7GFXfonth) for pgm_read_glyph_ptr(const GFXfont*, unsigned char)
    adafruit_gfx.o(i._ZN12Adafruit_GFX10fillCircleEssst) refers to adafruit_gfx.o(i._ZN12Adafruit_GFX16fillCircleHelperEssshst) for Adafruit_GFX::fillCircleHelper(short, short, short, unsigned char, short, unsigned short)
    adafruit_gfx.o(i._ZN12Adafruit_GFX11setTextSizeEh) refers to adafruit_gfx.o(i._ZN12Adafruit_GFX11setTextSizeEhh) for Adafruit_GFX::setTextSize(unsigned char, unsigned char)
    adafruit_gfx.o(i._ZN12Adafruit_GFX13drawRoundRectEssssst) refers to adafruit_gfx.o(i._ZN12Adafruit_GFX16drawCircleHelperEsssht) for Adafruit_GFX::drawCircleHelper(short, short, short, unsigned char, unsigned short)
    adafruit_gfx.o(i._ZN12Adafruit_GFX13fillRoundRectEssssst) refers to adafruit_gfx.o(i._ZN12Adafruit_GFX16fillCircleHelperEssshst) for Adafruit_GFX::fillCircleHelper(short, short, short, unsigned char, short, unsigned short)
    adafruit_gfx.o(i._ZN12Adafruit_GFX13getTextBoundsEPKcssPsS2_PtS3_) refers to adafruit_gfx.o(i._ZN12Adafruit_GFX10charBoundsEhPsS0_S0_S0_S0_S0_) for Adafruit_GFX::charBounds(unsigned char, short*, short*, short*, short*, short*, short*)
    adafruit_gfx.o(i._ZN12Adafruit_GFX13getTextBoundsERKSsssPsS2_PtS3_) refers to adafruit_gfx.o(i._ZN12Adafruit_GFX13getTextBoundsEPKcssPsS2_PtS3_) for Adafruit_GFX::getTextBounds(const char*, short, short, short*, short*, unsigned short*, unsigned short*)
    adafruit_gfx.o(i._ZN12Adafruit_GFX5writeEh) refers to adafruit_gfx.o(i._ZN12Adafruit_GFX8drawCharEsshtthh) for Adafruit_GFX::drawChar(short, short, unsigned char, unsigned short, unsigned short, unsigned char, unsigned char)
    adafruit_gfx.o(i._ZN12Adafruit_GFX5writeEh) refers to adafruit_gfx.o(i._Z18pgm_read_glyph_ptrPK7GFXfonth) for pgm_read_glyph_ptr(const GFXfont*, unsigned char)
    adafruit_gfx.o(i._ZN12Adafruit_GFX8drawCharEsshtth) refers to adafruit_gfx.o(i._ZN12Adafruit_GFX8drawCharEsshtthh) for Adafruit_GFX::drawChar(short, short, unsigned char, unsigned short, unsigned short, unsigned char, unsigned char)
    adafruit_gfx.o(i._ZN12Adafruit_GFX8drawCharEsshtthh) refers to adafruit_gfx.o(i._Z18pgm_read_glyph_ptrPK7GFXfonth) for pgm_read_glyph_ptr(const GFXfont*, unsigned char)
    adafruit_gfx.o(i._ZN12Adafruit_GFX8drawCharEsshtthh) refers to adafruit_gfx.o(.constdata) for font
    adafruit_gfx.o(i._ZN12Adafruit_GFXC2Ess) refers to adafruit_gfx.o(.constdata__ZTV12Adafruit_GFX) for vtable for Adafruit_GFX
    adafruit_gfx.o(i._ZN19Adafruit_GFX_Button10drawButtonEb) refers to adafruit_gfx.o(i._ZN12Adafruit_GFX13fillRoundRectEssssst) for Adafruit_GFX::fillRoundRect(short, short, short, short, short, unsigned short)
    adafruit_gfx.o(i._ZN19Adafruit_GFX_Button10drawButtonEb) refers to adafruit_gfx.o(i._ZN12Adafruit_GFX13drawRoundRectEssssst) for Adafruit_GFX::drawRoundRect(short, short, short, short, short, unsigned short)
    adafruit_gfx.o(i._ZN19Adafruit_GFX_Button10drawButtonEb) refers to strlen.o(.text) for strlen
    adafruit_gfx.o(i._ZN19Adafruit_GFX_Button10drawButtonEb) refers to adafruit_gfx.o(i._ZN12Adafruit_GFX11setTextSizeEhh) for Adafruit_GFX::setTextSize(unsigned char, unsigned char)
    adafruit_gfx.o(i._ZN19Adafruit_GFX_Button10initButtonEP12Adafruit_GFXsstttttPch) refers to adafruit_gfx.o(i._ZN19Adafruit_GFX_Button12initButtonULEP12Adafruit_GFXsstttttPch) for Adafruit_GFX_Button::initButtonUL(Adafruit_GFX*, short, short, unsigned short, unsigned short, unsigned short, unsigned short, unsigned short, char*, unsigned char)
    adafruit_gfx.o(i._ZN19Adafruit_GFX_Button10initButtonEP12Adafruit_GFXsstttttPchh) refers to adafruit_gfx.o(i._ZN19Adafruit_GFX_Button12initButtonULEP12Adafruit_GFXsstttttPchh) for Adafruit_GFX_Button::initButtonUL(Adafruit_GFX*, short, short, unsigned short, unsigned short, unsigned short, unsigned short, unsigned short, char*, unsigned char, unsigned char)
    adafruit_gfx.o(i._ZN19Adafruit_GFX_Button12initButtonULEP12Adafruit_GFXsstttttPch) refers to adafruit_gfx.o(i._ZN19Adafruit_GFX_Button12initButtonULEP12Adafruit_GFXsstttttPchh) for Adafruit_GFX_Button::initButtonUL(Adafruit_GFX*, short, short, unsigned short, unsigned short, unsigned short, unsigned short, unsigned short, char*, unsigned char, unsigned char)
    adafruit_gfx.o(i._ZN19Adafruit_GFX_Button12initButtonULEP12Adafruit_GFXsstttttPchh) refers to strncpy.o(.text) for strncpy
    adafruit_gfx.o(i._ZNK10GFXcanvas111getRawPixelEss) refers to adafruit_gfx.o(i._ZNK10GFXcanvas19getBufferEv) for GFXcanvas1::getBuffer() const
    adafruit_gfx.o(i._ZNK10GFXcanvas18getPixelEss) refers to adafruit_gfx.o(i._ZNK10GFXcanvas111getRawPixelEss) for GFXcanvas1::getRawPixel(short, short) const
    adafruit_gfx.o(i._ZNK10GFXcanvas88getPixelEss) refers to adafruit_gfx.o(i._ZNK10GFXcanvas811getRawPixelEss) for GFXcanvas8::getRawPixel(short, short) const
    adafruit_gfx.o(i._ZNK11GFXcanvas168getPixelEss) refers to adafruit_gfx.o(i._ZNK11GFXcanvas1611getRawPixelEss) for GFXcanvas16::getRawPixel(short, short) const
    adafruit_gfx.o(.ARM.exidx) refers to adafruit_gfx.o(i._ZN12Adafruit_GFXC2Ess) for i._ZN12Adafruit_GFXC2Ess
    adafruit_gfx.o(.ARM.exidx) refers to adafruit_gfx.o(i._ZN12Adafruit_GFX10startWriteEv) for i._ZN12Adafruit_GFX10startWriteEv
    adafruit_gfx.o(.ARM.exidx) refers to adafruit_gfx.o(i._ZN12Adafruit_GFX10writePixelEsst) for i._ZN12Adafruit_GFX10writePixelEsst
    adafruit_gfx.o(.ARM.exidx) refers to adafruit_gfx.o(i._ZN12Adafruit_GFX13writeFillRectEsssst) for i._ZN12Adafruit_GFX13writeFillRectEsssst
    adafruit_gfx.o(.ARM.exidx) refers to adafruit_gfx.o(i._ZN12Adafruit_GFX14writeFastVLineEssst) for i._ZN12Adafruit_GFX14writeFastVLineEssst
    adafruit_gfx.o(.ARM.exidx) refers to adafruit_gfx.o(i._ZN12Adafruit_GFX14writeFastHLineEssst) for i._ZN12Adafruit_GFX14writeFastHLineEssst
    adafruit_gfx.o(.ARM.exidx) refers to adafruit_gfx.o(i._ZN12Adafruit_GFX9writeLineEsssst) for i._ZN12Adafruit_GFX9writeLineEsssst
    adafruit_gfx.o(.ARM.exidx) refers to adafruit_gfx.o(i._ZN12Adafruit_GFX8endWriteEv) for i._ZN12Adafruit_GFX8endWriteEv
    adafruit_gfx.o(.ARM.exidx) refers to adafruit_gfx.o(i._ZN12Adafruit_GFX11setRotationEh) for i._ZN12Adafruit_GFX11setRotationEh
    adafruit_gfx.o(.ARM.exidx) refers to adafruit_gfx.o(i._ZN12Adafruit_GFX13invertDisplayEb) for i._ZN12Adafruit_GFX13invertDisplayEb
    adafruit_gfx.o(.ARM.exidx) refers to adafruit_gfx.o(i._ZN12Adafruit_GFX13drawFastVLineEssst) for i._ZN12Adafruit_GFX13drawFastVLineEssst
    adafruit_gfx.o(.ARM.exidx) refers to adafruit_gfx.o(i._ZN12Adafruit_GFX13drawFastHLineEssst) for i._ZN12Adafruit_GFX13drawFastHLineEssst
    adafruit_gfx.o(.ARM.exidx) refers to adafruit_gfx.o(i._ZN12Adafruit_GFX8fillRectEsssst) for i._ZN12Adafruit_GFX8fillRectEsssst
    adafruit_gfx.o(.ARM.exidx) refers to adafruit_gfx.o(i._ZN12Adafruit_GFX10fillScreenEt) for i._ZN12Adafruit_GFX10fillScreenEt
    adafruit_gfx.o(.ARM.exidx) refers to adafruit_gfx.o(i._ZN12Adafruit_GFX8drawLineEsssst) for i._ZN12Adafruit_GFX8drawLineEsssst
    adafruit_gfx.o(.ARM.exidx) refers to adafruit_gfx.o(i._ZN12Adafruit_GFX8drawRectEsssst) for i._ZN12Adafruit_GFX8drawRectEsssst
    adafruit_gfx.o(.ARM.exidx) refers to adafruit_gfx.o(i._ZN12Adafruit_GFX10drawCircleEssst) for i._ZN12Adafruit_GFX10drawCircleEssst
    adafruit_gfx.o(.ARM.exidx) refers to adafruit_gfx.o(i._ZN12Adafruit_GFX16drawCircleHelperEsssht) for i._ZN12Adafruit_GFX16drawCircleHelperEsssht
    adafruit_gfx.o(.ARM.exidx) refers to adafruit_gfx.o(i._ZN12Adafruit_GFX16fillCircleHelperEssshst) for i._ZN12Adafruit_GFX16fillCircleHelperEssshst
    adafruit_gfx.o(.ARM.exidx) refers to adafruit_gfx.o(i._ZN12Adafruit_GFX10fillCircleEssst) for i._ZN12Adafruit_GFX10fillCircleEssst
    adafruit_gfx.o(.ARM.exidx) refers to adafruit_gfx.o(i._ZN12Adafruit_GFX12drawTriangleEsssssst) for i._ZN12Adafruit_GFX12drawTriangleEsssssst
    adafruit_gfx.o(.ARM.exidx) refers to adafruit_gfx.o(i._ZN12Adafruit_GFX12fillTriangleEsssssst) for i._ZN12Adafruit_GFX12fillTriangleEsssssst
    adafruit_gfx.o(.ARM.exidx) refers to adafruit_gfx.o(i._ZN12Adafruit_GFX13drawRoundRectEssssst) for i._ZN12Adafruit_GFX13drawRoundRectEssssst
    adafruit_gfx.o(.ARM.exidx) refers to adafruit_gfx.o(i._ZN12Adafruit_GFX13fillRoundRectEssssst) for i._ZN12Adafruit_GFX13fillRoundRectEssssst
    adafruit_gfx.o(.ARM.exidx) refers to adafruit_gfx.o(i._ZN12Adafruit_GFX10drawBitmapEssPKhsst) for i._ZN12Adafruit_GFX10drawBitmapEssPKhsst
    adafruit_gfx.o(.ARM.exidx) refers to adafruit_gfx.o(i._ZN12Adafruit_GFX10drawBitmapEssPKhsstt) for i._ZN12Adafruit_GFX10drawBitmapEssPKhsstt
    adafruit_gfx.o(.ARM.exidx) refers to adafruit_gfx.o(i._ZN12Adafruit_GFX10drawBitmapEssPhsst) for i._ZN12Adafruit_GFX10drawBitmapEssPhsst
    adafruit_gfx.o(.ARM.exidx) refers to adafruit_gfx.o(i._ZN12Adafruit_GFX10drawBitmapEssPhsstt) for i._ZN12Adafruit_GFX10drawBitmapEssPhsstt
    adafruit_gfx.o(.ARM.exidx) refers to adafruit_gfx.o(i._ZN12Adafruit_GFX11drawXBitmapEssPKhsst) for i._ZN12Adafruit_GFX11drawXBitmapEssPKhsst
    adafruit_gfx.o(.ARM.exidx) refers to adafruit_gfx.o(i._ZN12Adafruit_GFX19drawGrayscaleBitmapEssPKhss) for i._ZN12Adafruit_GFX19drawGrayscaleBitmapEssPKhss
    adafruit_gfx.o(.ARM.exidx) refers to adafruit_gfx.o(i._ZN12Adafruit_GFX19drawGrayscaleBitmapEssPhss) for i._ZN12Adafruit_GFX19drawGrayscaleBitmapEssPhss
    adafruit_gfx.o(.ARM.exidx) refers to adafruit_gfx.o(i._ZN12Adafruit_GFX19drawGrayscaleBitmapEssPKhS1_ss) for i._ZN12Adafruit_GFX19drawGrayscaleBitmapEssPKhS1_ss
    adafruit_gfx.o(.ARM.exidx) refers to adafruit_gfx.o(i._ZN12Adafruit_GFX19drawGrayscaleBitmapEssPhS0_ss) for i._ZN12Adafruit_GFX19drawGrayscaleBitmapEssPhS0_ss
    adafruit_gfx.o(.ARM.exidx) refers to adafruit_gfx.o(i._ZN12Adafruit_GFX13drawRGBBitmapEssPKtss) for i._ZN12Adafruit_GFX13drawRGBBitmapEssPKtss
    adafruit_gfx.o(.ARM.exidx) refers to adafruit_gfx.o(i._ZN12Adafruit_GFX13drawRGBBitmapEssPtss) for i._ZN12Adafruit_GFX13drawRGBBitmapEssPtss
    adafruit_gfx.o(.ARM.exidx) refers to adafruit_gfx.o(i._ZN12Adafruit_GFX13drawRGBBitmapEssPKtPKhss) for i._ZN12Adafruit_GFX13drawRGBBitmapEssPKtPKhss
    adafruit_gfx.o(.ARM.exidx) refers to adafruit_gfx.o(i._ZN12Adafruit_GFX13drawRGBBitmapEssPtPhss) for i._ZN12Adafruit_GFX13drawRGBBitmapEssPtPhss
    adafruit_gfx.o(.ARM.exidx) refers to adafruit_gfx.o(i._ZN12Adafruit_GFX8drawCharEsshtthh) for i._ZN12Adafruit_GFX8drawCharEsshtthh
    adafruit_gfx.o(.ARM.exidx) refers to adafruit_gfx.o(i._ZN12Adafruit_GFX8drawCharEsshtth) for i._ZN12Adafruit_GFX8drawCharEsshtth
    adafruit_gfx.o(.ARM.exidx) refers to adafruit_gfx.o(i._ZN12Adafruit_GFX10charBoundsEhPsS0_S0_S0_S0_S0_) for i._ZN12Adafruit_GFX10charBoundsEhPsS0_S0_S0_S0_S0_
    adafruit_gfx.o(.ARM.exidx) refers to adafruit_gfx.o(i._ZN12Adafruit_GFX13getTextBoundsEPKcssPsS2_PtS3_) for i._ZN12Adafruit_GFX13getTextBoundsEPKcssPsS2_PtS3_
    adafruit_gfx.o(.ARM.exidx) refers to adafruit_gfx.o(i._ZN12Adafruit_GFX13getTextBoundsERKSsssPsS2_PtS3_) for i._ZN12Adafruit_GFX13getTextBoundsERKSsssPsS2_PtS3_
    adafruit_gfx.o(.ARM.exidx) refers to adafruit_gfx.o(i._ZN12Adafruit_GFX11setTextSizeEhh) for i._ZN12Adafruit_GFX11setTextSizeEhh
    adafruit_gfx.o(.ARM.exidx) refers to adafruit_gfx.o(i._ZN12Adafruit_GFX11setTextSizeEh) for i._ZN12Adafruit_GFX11setTextSizeEh
    adafruit_gfx.o(.ARM.exidx) refers to adafruit_gfx.o(i._ZN12Adafruit_GFX7setFontEPK7GFXfont) for i._ZN12Adafruit_GFX7setFontEPK7GFXfont
    adafruit_gfx.o(.ARM.exidx) refers to adafruit_gfx.o(i._ZN12Adafruit_GFX5writeEh) for i._ZN12Adafruit_GFX5writeEh
    adafruit_gfx.o(.ARM.exidx) refers to adafruit_gfx.o(i._ZN19Adafruit_GFX_ButtonC1Ev) for i._ZN19Adafruit_GFX_ButtonC1Ev
    adafruit_gfx.o(.ARM.exidx) refers to adafruit_gfx.o(i._ZN19Adafruit_GFX_Button12initButtonULEP12Adafruit_GFXsstttttPchh) for i._ZN19Adafruit_GFX_Button12initButtonULEP12Adafruit_GFXsstttttPchh
    adafruit_gfx.o(.ARM.exidx) refers to adafruit_gfx.o(i._ZN19Adafruit_GFX_Button12initButtonULEP12Adafruit_GFXsstttttPch) for i._ZN19Adafruit_GFX_Button12initButtonULEP12Adafruit_GFXsstttttPch
    adafruit_gfx.o(.ARM.exidx) refers to adafruit_gfx.o(i._ZN19Adafruit_GFX_Button10initButtonEP12Adafruit_GFXsstttttPch) for i._ZN19Adafruit_GFX_Button10initButtonEP12Adafruit_GFXsstttttPch
    adafruit_gfx.o(.ARM.exidx) refers to adafruit_gfx.o(i._ZN19Adafruit_GFX_Button10initButtonEP12Adafruit_GFXsstttttPchh) for i._ZN19Adafruit_GFX_Button10initButtonEP12Adafruit_GFXsstttttPchh
    adafruit_gfx.o(.ARM.exidx) refers to adafruit_gfx.o(i._ZN19Adafruit_GFX_Button10drawButtonEb) for i._ZN19Adafruit_GFX_Button10drawButtonEb
    adafruit_gfx.o(.ARM.exidx) refers to adafruit_gfx.o(i._ZN19Adafruit_GFX_Button8containsEss) for i._ZN19Adafruit_GFX_Button8containsEss
    adafruit_gfx.o(.ARM.exidx) refers to adafruit_gfx.o(i._ZN19Adafruit_GFX_Button11justPressedEv) for i._ZN19Adafruit_GFX_Button11justPressedEv
    adafruit_gfx.o(.ARM.exidx) refers to adafruit_gfx.o(i._ZN19Adafruit_GFX_Button12justReleasedEv) for i._ZN19Adafruit_GFX_Button12justReleasedEv
    adafruit_gfx.o(.ARM.exidx) refers to adafruit_gfx.o(i._ZN10GFXcanvas1C1Ett) for i._ZN10GFXcanvas1C1Ett
    adafruit_gfx.o(.ARM.exidx) refers to adafruit_gfx.o(i._ZN10GFXcanvas1D1Ev) for i._ZN10GFXcanvas1D1Ev
    adafruit_gfx.o(.ARM.exidx) refers to adafruit_gfx.o(i._ZN10GFXcanvas19drawPixelEsst) for i._ZN10GFXcanvas19drawPixelEsst
    adafruit_gfx.o(.ARM.exidx) refers to adafruit_gfx.o(i._ZN10GFXcanvas110fillScreenEt) for i._ZN10GFXcanvas110fillScreenEt
    adafruit_gfx.o(.ARM.exidx) refers to adafruit_gfx.o(i._ZN10GFXcanvas116drawFastRawHLineEssst) for i._ZN10GFXcanvas116drawFastRawHLineEssst
    adafruit_gfx.o(.ARM.exidx) refers to adafruit_gfx.o(i._ZN10GFXcanvas116drawFastRawVLineEssst) for i._ZN10GFXcanvas116drawFastRawVLineEssst
    adafruit_gfx.o(.ARM.exidx) refers to adafruit_gfx.o(i._ZN10GFXcanvas113drawFastVLineEssst) for i._ZN10GFXcanvas113drawFastVLineEssst
    adafruit_gfx.o(.ARM.exidx) refers to adafruit_gfx.o(i._ZN10GFXcanvas113drawFastHLineEssst) for i._ZN10GFXcanvas113drawFastHLineEssst
    adafruit_gfx.o(.ARM.exidx) refers to adafruit_gfx.o(i._ZNK10GFXcanvas111getRawPixelEss) for i._ZNK10GFXcanvas111getRawPixelEss
    adafruit_gfx.o(.ARM.exidx) refers to adafruit_gfx.o(i._ZNK10GFXcanvas18getPixelEss) for i._ZNK10GFXcanvas18getPixelEss
    adafruit_gfx.o(.ARM.exidx) refers to adafruit_gfx.o(i._ZN10GFXcanvas8C1Ett) for i._ZN10GFXcanvas8C1Ett
    adafruit_gfx.o(.ARM.exidx) refers to adafruit_gfx.o(i._ZN10GFXcanvas8D1Ev) for i._ZN10GFXcanvas8D1Ev
    adafruit_gfx.o(.ARM.exidx) refers to adafruit_gfx.o(i._ZN10GFXcanvas89drawPixelEsst) for i._ZN10GFXcanvas89drawPixelEsst
    adafruit_gfx.o(.ARM.exidx) refers to adafruit_gfx.o(i._ZN10GFXcanvas810fillScreenEt) for i._ZN10GFXcanvas810fillScreenEt
    adafruit_gfx.o(.ARM.exidx) refers to adafruit_gfx.o(i._ZN10GFXcanvas816drawFastRawHLineEssst) for i._ZN10GFXcanvas816drawFastRawHLineEssst
    adafruit_gfx.o(.ARM.exidx) refers to adafruit_gfx.o(i._ZN10GFXcanvas816drawFastRawVLineEssst) for i._ZN10GFXcanvas816drawFastRawVLineEssst
    adafruit_gfx.o(.ARM.exidx) refers to adafruit_gfx.o(i._ZN10GFXcanvas813drawFastVLineEssst) for i._ZN10GFXcanvas813drawFastVLineEssst
    adafruit_gfx.o(.ARM.exidx) refers to adafruit_gfx.o(i._ZN10GFXcanvas813drawFastHLineEssst) for i._ZN10GFXcanvas813drawFastHLineEssst
    adafruit_gfx.o(.ARM.exidx) refers to adafruit_gfx.o(i._ZNK10GFXcanvas811getRawPixelEss) for i._ZNK10GFXcanvas811getRawPixelEss
    adafruit_gfx.o(.ARM.exidx) refers to adafruit_gfx.o(i._ZNK10GFXcanvas88getPixelEss) for i._ZNK10GFXcanvas88getPixelEss
    adafruit_gfx.o(.ARM.exidx) refers to adafruit_gfx.o(i._ZN11GFXcanvas16C1Ett) for i._ZN11GFXcanvas16C1Ett
    adafruit_gfx.o(.ARM.exidx) refers to adafruit_gfx.o(i._ZN11GFXcanvas16D1Ev) for i._ZN11GFXcanvas16D1Ev
    adafruit_gfx.o(.ARM.exidx) refers to adafruit_gfx.o(i._ZN11GFXcanvas169drawPixelEsst) for i._ZN11GFXcanvas169drawPixelEsst
    adafruit_gfx.o(.ARM.exidx) refers to adafruit_gfx.o(i._ZN11GFXcanvas1610fillScreenEt) for i._ZN11GFXcanvas1610fillScreenEt
    adafruit_gfx.o(.ARM.exidx) refers to adafruit_gfx.o(i._ZN11GFXcanvas168byteSwapEv) for i._ZN11GFXcanvas168byteSwapEv
    adafruit_gfx.o(.ARM.exidx) refers to adafruit_gfx.o(i._ZN11GFXcanvas1616drawFastRawHLineEssst) for i._ZN11GFXcanvas1616drawFastRawHLineEssst
    adafruit_gfx.o(.ARM.exidx) refers to adafruit_gfx.o(i._ZN11GFXcanvas1616drawFastRawVLineEssst) for i._ZN11GFXcanvas1616drawFastRawVLineEssst
    adafruit_gfx.o(.ARM.exidx) refers to adafruit_gfx.o(i._ZN11GFXcanvas1613drawFastVLineEssst) for i._ZN11GFXcanvas1613drawFastVLineEssst
    adafruit_gfx.o(.ARM.exidx) refers to adafruit_gfx.o(i._ZN11GFXcanvas1613drawFastHLineEssst) for i._ZN11GFXcanvas1613drawFastHLineEssst
    adafruit_gfx.o(.ARM.exidx) refers to adafruit_gfx.o(i._ZNK11GFXcanvas1611getRawPixelEss) for i._ZNK11GFXcanvas1611getRawPixelEss
    adafruit_gfx.o(.ARM.exidx) refers to adafruit_gfx.o(i._ZNK11GFXcanvas168getPixelEss) for i._ZNK11GFXcanvas168getPixelEss
    adafruit_mcpsram.o(i._ZN16Adafruit_MCPSRAM4readEtPhth) refers to adafruit_mcpsram.o(i._ZN16Adafruit_MCPSRAM5csLowEv) for Adafruit_MCPSRAM::csLow()
    adafruit_mcpsram.o(i._ZN16Adafruit_MCPSRAM4readEtPhth) refers to adafruit_mcpsram.o(i._ZN16Adafruit_MCPSRAM6csHighEv) for Adafruit_MCPSRAM::csHigh()
    adafruit_mcpsram.o(i._ZN16Adafruit_MCPSRAM5beginEv) refers to adafruit_mcpsram.o(i._ZN16Adafruit_MCPSRAM6csHighEv) for Adafruit_MCPSRAM::csHigh()
    adafruit_mcpsram.o(i._ZN16Adafruit_MCPSRAM5beginEv) refers to adafruit_mcpsram.o(i._ZN16Adafruit_MCPSRAM5csLowEv) for Adafruit_MCPSRAM::csLow()
    adafruit_mcpsram.o(i._ZN16Adafruit_MCPSRAM5eraseEtth) refers to adafruit_mcpsram.o(i._ZN16Adafruit_MCPSRAM5csLowEv) for Adafruit_MCPSRAM::csLow()
    adafruit_mcpsram.o(i._ZN16Adafruit_MCPSRAM5eraseEtth) refers to adafruit_mcpsram.o(i._ZN16Adafruit_MCPSRAM6csHighEv) for Adafruit_MCPSRAM::csHigh()
    adafruit_mcpsram.o(i._ZN16Adafruit_MCPSRAM5read8Eth) refers to adafruit_mcpsram.o(i._ZN16Adafruit_MCPSRAM4readEtPhth) for Adafruit_MCPSRAM::read(unsigned short, unsigned char*, unsigned short, unsigned char)
    adafruit_mcpsram.o(i._ZN16Adafruit_MCPSRAM5writeEtPhth) refers to adafruit_mcpsram.o(i._ZN16Adafruit_MCPSRAM5csLowEv) for Adafruit_MCPSRAM::csLow()
    adafruit_mcpsram.o(i._ZN16Adafruit_MCPSRAM5writeEtPhth) refers to adafruit_mcpsram.o(i._ZN16Adafruit_MCPSRAM6csHighEv) for Adafruit_MCPSRAM::csHigh()
    adafruit_mcpsram.o(i._ZN16Adafruit_MCPSRAM6read16Et) refers to adafruit_mcpsram.o(i._ZN16Adafruit_MCPSRAM4readEtPhth) for Adafruit_MCPSRAM::read(unsigned short, unsigned char*, unsigned short, unsigned char)
    adafruit_mcpsram.o(i._ZN16Adafruit_MCPSRAM6write8Ethh) refers to adafruit_mcpsram.o(i._ZN16Adafruit_MCPSRAM5writeEtPhth) for Adafruit_MCPSRAM::write(unsigned short, unsigned char*, unsigned short, unsigned char)
    adafruit_mcpsram.o(i._ZN16Adafruit_MCPSRAM7write16Ett) refers to adafruit_mcpsram.o(i._ZN16Adafruit_MCPSRAM5writeEtPhth) for Adafruit_MCPSRAM::write(unsigned short, unsigned char*, unsigned short, unsigned char)
    adafruit_mcpsram.o(.ARM.exidx) refers to adafruit_mcpsram.o(i._ZN16Adafruit_MCPSRAMC1Eaaaa) for i._ZN16Adafruit_MCPSRAMC1Eaaaa
    adafruit_mcpsram.o(.ARM.exidx) refers to adafruit_mcpsram.o(i._ZN16Adafruit_MCPSRAMC1EaP8SPIClass) for i._ZN16Adafruit_MCPSRAMC1EaP8SPIClass
    adafruit_mcpsram.o(.ARM.exidx) refers to adafruit_mcpsram.o(i._ZN16Adafruit_MCPSRAM6csHighEv) for i._ZN16Adafruit_MCPSRAM6csHighEv
    adafruit_mcpsram.o(.ARM.exidx) refers to adafruit_mcpsram.o(i._ZN16Adafruit_MCPSRAM5csLowEv) for i._ZN16Adafruit_MCPSRAM5csLowEv
    adafruit_mcpsram.o(.ARM.exidx) refers to adafruit_mcpsram.o(i._ZN16Adafruit_MCPSRAM5beginEv) for i._ZN16Adafruit_MCPSRAM5beginEv
    adafruit_mcpsram.o(.ARM.exidx) refers to adafruit_mcpsram.o(i._ZN16Adafruit_MCPSRAM5writeEtPhth) for i._ZN16Adafruit_MCPSRAM5writeEtPhth
    adafruit_mcpsram.o(.ARM.exidx) refers to adafruit_mcpsram.o(i._ZN16Adafruit_MCPSRAM4readEtPhth) for i._ZN16Adafruit_MCPSRAM4readEtPhth
    adafruit_mcpsram.o(.ARM.exidx) refers to adafruit_mcpsram.o(i._ZN16Adafruit_MCPSRAM5eraseEtth) for i._ZN16Adafruit_MCPSRAM5eraseEtth
    adafruit_mcpsram.o(.ARM.exidx) refers to adafruit_mcpsram.o(i._ZN16Adafruit_MCPSRAM5read8Eth) for i._ZN16Adafruit_MCPSRAM5read8Eth
    adafruit_mcpsram.o(.ARM.exidx) refers to adafruit_mcpsram.o(i._ZN16Adafruit_MCPSRAM6read16Et) for i._ZN16Adafruit_MCPSRAM6read16Et
    adafruit_mcpsram.o(.ARM.exidx) refers to adafruit_mcpsram.o(i._ZN16Adafruit_MCPSRAM6write8Ethh) for i._ZN16Adafruit_MCPSRAM6write8Ethh
    adafruit_mcpsram.o(.ARM.exidx) refers to adafruit_mcpsram.o(i._ZN16Adafruit_MCPSRAM7write16Ett) for i._ZN16Adafruit_MCPSRAM7write16Ett
    adafruit_spitft.o(i._ZN15Adafruit_SPITFT10startWriteEv) refers to adafruit_spitft.o(i._ZN15Adafruit_SPITFT21SPI_BEGIN_TRANSACTIONEv) for Adafruit_SPITFT::SPI_BEGIN_TRANSACTION()
    adafruit_spitft.o(i._ZN15Adafruit_SPITFT10startWriteEv) refers to adafruit_spitft.o(i._ZN15Adafruit_SPITFT10SPI_CS_LOWEv) for Adafruit_SPITFT::SPI_CS_LOW()
    adafruit_spitft.o(i._ZN15Adafruit_SPITFT10writeColorEtj) refers to adafruit_spitft.o(i._ZN15Adafruit_SPITFT13SPI_MOSI_HIGHEv) for Adafruit_SPITFT::SPI_MOSI_HIGH()
    adafruit_spitft.o(i._ZN15Adafruit_SPITFT10writeColorEtj) refers to adafruit_spitft.o(i._ZN15Adafruit_SPITFT12SPI_MOSI_LOWEv) for Adafruit_SPITFT::SPI_MOSI_LOW()
    adafruit_spitft.o(i._ZN15Adafruit_SPITFT10writeColorEtj) refers to adafruit_spitft.o(i._ZN15Adafruit_SPITFT12SPI_SCK_HIGHEv) for Adafruit_SPITFT::SPI_SCK_HIGH()
    adafruit_spitft.o(i._ZN15Adafruit_SPITFT10writeColorEtj) refers to adafruit_spitft.o(i._ZN15Adafruit_SPITFT11SPI_SCK_LOWEv) for Adafruit_SPITFT::SPI_SCK_LOW()
    adafruit_spitft.o(i._ZN15Adafruit_SPITFT10writeColorEtj) refers to adafruit_spitft.o(i._ZN15Adafruit_SPITFT13TFT_WR_STROBEEv) for Adafruit_SPITFT::TFT_WR_STROBE()
    adafruit_spitft.o(i._ZN15Adafruit_SPITFT10writePixelEsst) refers to adafruit_spitft.o(i._ZN15Adafruit_SPITFT11SPI_WRITE16Et) for Adafruit_SPITFT::SPI_WRITE16(unsigned short)
    adafruit_spitft.o(i._ZN15Adafruit_SPITFT11SPI_WRITE16Et) refers to adafruit_spitft.o(i._ZN15Adafruit_SPITFT13SPI_MOSI_HIGHEv) for Adafruit_SPITFT::SPI_MOSI_HIGH()
    adafruit_spitft.o(i._ZN15Adafruit_SPITFT11SPI_WRITE16Et) refers to adafruit_spitft.o(i._ZN15Adafruit_SPITFT12SPI_MOSI_LOWEv) for Adafruit_SPITFT::SPI_MOSI_LOW()
    adafruit_spitft.o(i._ZN15Adafruit_SPITFT11SPI_WRITE16Et) refers to adafruit_spitft.o(i._ZN15Adafruit_SPITFT12SPI_SCK_HIGHEv) for Adafruit_SPITFT::SPI_SCK_HIGH()
    adafruit_spitft.o(i._ZN15Adafruit_SPITFT11SPI_WRITE16Et) refers to adafruit_spitft.o(i._ZN15Adafruit_SPITFT11SPI_SCK_LOWEv) for Adafruit_SPITFT::SPI_SCK_LOW()
    adafruit_spitft.o(i._ZN15Adafruit_SPITFT11SPI_WRITE16Et) refers to adafruit_spitft.o(i._ZN15Adafruit_SPITFT13TFT_WR_STROBEEv) for Adafruit_SPITFT::TFT_WR_STROBE()
    adafruit_spitft.o(i._ZN15Adafruit_SPITFT11SPI_WRITE32Ej) refers to adafruit_spitft.o(i._ZN15Adafruit_SPITFT13SPI_MOSI_HIGHEv) for Adafruit_SPITFT::SPI_MOSI_HIGH()
    adafruit_spitft.o(i._ZN15Adafruit_SPITFT11SPI_WRITE32Ej) refers to adafruit_spitft.o(i._ZN15Adafruit_SPITFT12SPI_MOSI_LOWEv) for Adafruit_SPITFT::SPI_MOSI_LOW()
    adafruit_spitft.o(i._ZN15Adafruit_SPITFT11SPI_WRITE32Ej) refers to adafruit_spitft.o(i._ZN15Adafruit_SPITFT12SPI_SCK_HIGHEv) for Adafruit_SPITFT::SPI_SCK_HIGH()
    adafruit_spitft.o(i._ZN15Adafruit_SPITFT11SPI_WRITE32Ej) refers to adafruit_spitft.o(i._ZN15Adafruit_SPITFT11SPI_SCK_LOWEv) for Adafruit_SPITFT::SPI_SCK_LOW()
    adafruit_spitft.o(i._ZN15Adafruit_SPITFT11SPI_WRITE32Ej) refers to adafruit_spitft.o(i._ZN15Adafruit_SPITFT13TFT_WR_STROBEEv) for Adafruit_SPITFT::TFT_WR_STROBE()
    adafruit_spitft.o(i._ZN15Adafruit_SPITFT11sendCommandEhPKhh) refers to adafruit_spitft.o(i._ZN15Adafruit_SPITFT21SPI_BEGIN_TRANSACTIONEv) for Adafruit_SPITFT::SPI_BEGIN_TRANSACTION()
    adafruit_spitft.o(i._ZN15Adafruit_SPITFT11sendCommandEhPKhh) refers to adafruit_spitft.o(i._ZN15Adafruit_SPITFT10SPI_CS_LOWEv) for Adafruit_SPITFT::SPI_CS_LOW()
    adafruit_spitft.o(i._ZN15Adafruit_SPITFT11sendCommandEhPKhh) refers to adafruit_spitft.o(i._ZN15Adafruit_SPITFT10SPI_DC_LOWEv) for Adafruit_SPITFT::SPI_DC_LOW()
    adafruit_spitft.o(i._ZN15Adafruit_SPITFT11sendCommandEhPKhh) refers to adafruit_spitft.o(i._ZN15Adafruit_SPITFT8spiWriteEh) for Adafruit_SPITFT::spiWrite(unsigned char)
    adafruit_spitft.o(i._ZN15Adafruit_SPITFT11sendCommandEhPKhh) refers to adafruit_spitft.o(i._ZN15Adafruit_SPITFT11SPI_DC_HIGHEv) for Adafruit_SPITFT::SPI_DC_HIGH()
    adafruit_spitft.o(i._ZN15Adafruit_SPITFT11sendCommandEhPKhh) refers to adafruit_spitft.o(i._ZN15Adafruit_SPITFT11SPI_WRITE16Et) for Adafruit_SPITFT::SPI_WRITE16(unsigned short)
    adafruit_spitft.o(i._ZN15Adafruit_SPITFT11sendCommandEhPKhh) refers to adafruit_spitft.o(i._ZN15Adafruit_SPITFT11SPI_CS_HIGHEv) for Adafruit_SPITFT::SPI_CS_HIGH()
    adafruit_spitft.o(i._ZN15Adafruit_SPITFT11sendCommandEhPhh) refers to adafruit_spitft.o(i._ZN15Adafruit_SPITFT21SPI_BEGIN_TRANSACTIONEv) for Adafruit_SPITFT::SPI_BEGIN_TRANSACTION()
    adafruit_spitft.o(i._ZN15Adafruit_SPITFT11sendCommandEhPhh) refers to adafruit_spitft.o(i._ZN15Adafruit_SPITFT10SPI_CS_LOWEv) for Adafruit_SPITFT::SPI_CS_LOW()
    adafruit_spitft.o(i._ZN15Adafruit_SPITFT11sendCommandEhPhh) refers to adafruit_spitft.o(i._ZN15Adafruit_SPITFT10SPI_DC_LOWEv) for Adafruit_SPITFT::SPI_DC_LOW()
    adafruit_spitft.o(i._ZN15Adafruit_SPITFT11sendCommandEhPhh) refers to adafruit_spitft.o(i._ZN15Adafruit_SPITFT8spiWriteEh) for Adafruit_SPITFT::spiWrite(unsigned char)
    adafruit_spitft.o(i._ZN15Adafruit_SPITFT11sendCommandEhPhh) refers to adafruit_spitft.o(i._ZN15Adafruit_SPITFT11SPI_DC_HIGHEv) for Adafruit_SPITFT::SPI_DC_HIGH()
    adafruit_spitft.o(i._ZN15Adafruit_SPITFT11sendCommandEhPhh) refers to adafruit_spitft.o(i._ZN15Adafruit_SPITFT11SPI_WRITE16Et) for Adafruit_SPITFT::SPI_WRITE16(unsigned short)
    adafruit_spitft.o(i._ZN15Adafruit_SPITFT11sendCommandEhPhh) refers to adafruit_spitft.o(i._ZN15Adafruit_SPITFT11SPI_CS_HIGHEv) for Adafruit_SPITFT::SPI_CS_HIGH()
    adafruit_spitft.o(i._ZN15Adafruit_SPITFT11writePixelsEPtjbb) refers to adafruit_spitft.o(i._ZN15Adafruit_SPITFT11SPI_WRITE16Et) for Adafruit_SPITFT::SPI_WRITE16(unsigned short)
    adafruit_spitft.o(i._ZN15Adafruit_SPITFT12readcommand8Ehh) refers to adafruit_spitft.o(i._ZN15Adafruit_SPITFT10SPI_DC_LOWEv) for Adafruit_SPITFT::SPI_DC_LOW()
    adafruit_spitft.o(i._ZN15Adafruit_SPITFT12readcommand8Ehh) refers to adafruit_spitft.o(i._ZN15Adafruit_SPITFT8spiWriteEh) for Adafruit_SPITFT::spiWrite(unsigned char)
    adafruit_spitft.o(i._ZN15Adafruit_SPITFT12readcommand8Ehh) refers to adafruit_spitft.o(i._ZN15Adafruit_SPITFT11SPI_DC_HIGHEv) for Adafruit_SPITFT::SPI_DC_HIGH()
    adafruit_spitft.o(i._ZN15Adafruit_SPITFT12readcommand8Ehh) refers to adafruit_spitft.o(i._ZN15Adafruit_SPITFT7spiReadEv) for Adafruit_SPITFT::spiRead()
    adafruit_spitft.o(i._ZN15Adafruit_SPITFT12writeCommandEh) refers to adafruit_spitft.o(i._ZN15Adafruit_SPITFT10SPI_DC_LOWEv) for Adafruit_SPITFT::SPI_DC_LOW()
    adafruit_spitft.o(i._ZN15Adafruit_SPITFT12writeCommandEh) refers to adafruit_spitft.o(i._ZN15Adafruit_SPITFT8spiWriteEh) for Adafruit_SPITFT::spiWrite(unsigned char)
    adafruit_spitft.o(i._ZN15Adafruit_SPITFT12writeCommandEh) refers to adafruit_spitft.o(i._ZN15Adafruit_SPITFT11SPI_DC_HIGHEv) for Adafruit_SPITFT::SPI_DC_HIGH()
    adafruit_spitft.o(i._ZN15Adafruit_SPITFT13drawFastHLineEssst) refers to adafruit_spitft.o(i._ZN15Adafruit_SPITFT23writeFillRectPreclippedEsssst) for Adafruit_SPITFT::writeFillRectPreclipped(short, short, short, short, unsigned short)
    adafruit_spitft.o(i._ZN15Adafruit_SPITFT13drawFastVLineEssst) refers to adafruit_spitft.o(i._ZN15Adafruit_SPITFT23writeFillRectPreclippedEsssst) for Adafruit_SPITFT::writeFillRectPreclipped(short, short, short, short, unsigned short)
    adafruit_spitft.o(i._ZN15Adafruit_SPITFT13drawRGBBitmapEssPtss) refers to adafruit_spitft.o(i._ZN15Adafruit_SPITFT11writePixelsEPtjbb) for Adafruit_SPITFT::writePixels(unsigned short*, unsigned, bool, bool)
    adafruit_spitft.o(i._ZN15Adafruit_SPITFT13invertDisplayEb) refers to adafruit_spitft.o(i._ZN15Adafruit_SPITFT12writeCommandEh) for Adafruit_SPITFT::writeCommand(unsigned char)
    adafruit_spitft.o(i._ZN15Adafruit_SPITFT13sendCommand16EtPKhh) refers to adafruit_spitft.o(i._ZN15Adafruit_SPITFT21SPI_BEGIN_TRANSACTIONEv) for Adafruit_SPITFT::SPI_BEGIN_TRANSACTION()
    adafruit_spitft.o(i._ZN15Adafruit_SPITFT13sendCommand16EtPKhh) refers to adafruit_spitft.o(i._ZN15Adafruit_SPITFT10SPI_CS_LOWEv) for Adafruit_SPITFT::SPI_CS_LOW()
    adafruit_spitft.o(i._ZN15Adafruit_SPITFT13sendCommand16EtPKhh) refers to adafruit_spitft.o(i._ZN15Adafruit_SPITFT10SPI_DC_LOWEv) for Adafruit_SPITFT::SPI_DC_LOW()
    adafruit_spitft.o(i._ZN15Adafruit_SPITFT13sendCommand16EtPKhh) refers to adafruit_spitft.o(i._ZN15Adafruit_SPITFT11SPI_WRITE16Et) for Adafruit_SPITFT::SPI_WRITE16(unsigned short)
    adafruit_spitft.o(i._ZN15Adafruit_SPITFT13sendCommand16EtPKhh) refers to adafruit_spitft.o(i._ZN15Adafruit_SPITFT11SPI_DC_HIGHEv) for Adafruit_SPITFT::SPI_DC_HIGH()
    adafruit_spitft.o(i._ZN15Adafruit_SPITFT13sendCommand16EtPKhh) refers to adafruit_spitft.o(i._ZN15Adafruit_SPITFT11SPI_CS_HIGHEv) for Adafruit_SPITFT::SPI_CS_HIGH()
    adafruit_spitft.o(i._ZN15Adafruit_SPITFT13writeFillRectEsssst) refers to adafruit_spitft.o(i._ZN15Adafruit_SPITFT23writeFillRectPreclippedEsssst) for Adafruit_SPITFT::writeFillRectPreclipped(short, short, short, short, unsigned short)
    adafruit_spitft.o(i._ZN15Adafruit_SPITFT14writeCommand16Et) refers to adafruit_spitft.o(i._ZN15Adafruit_SPITFT10SPI_DC_LOWEv) for Adafruit_SPITFT::SPI_DC_LOW()
    adafruit_spitft.o(i._ZN15Adafruit_SPITFT14writeCommand16Et) refers to adafruit_spitft.o(i._ZN15Adafruit_SPITFT7write16Et) for Adafruit_SPITFT::write16(unsigned short)
    adafruit_spitft.o(i._ZN15Adafruit_SPITFT14writeCommand16Et) refers to adafruit_spitft.o(i._ZN15Adafruit_SPITFT11SPI_DC_HIGHEv) for Adafruit_SPITFT::SPI_DC_HIGH()
    adafruit_spitft.o(i._ZN15Adafruit_SPITFT7spiReadEv) refers to adafruit_spitft.o(i._ZN15Adafruit_SPITFT12SPI_SCK_HIGHEv) for Adafruit_SPITFT::SPI_SCK_HIGH()
    adafruit_spitft.o(i._ZN15Adafruit_SPITFT7spiReadEv) refers to adafruit_spitft.o(i._ZN15Adafruit_SPITFT11SPI_SCK_LOWEv) for Adafruit_SPITFT::SPI_SCK_LOW()
    adafruit_spitft.o(i._ZN15Adafruit_SPITFT7write16Et) refers to adafruit_spitft.o(i._ZN15Adafruit_SPITFT13TFT_WR_STROBEEv) for Adafruit_SPITFT::TFT_WR_STROBE()
    adafruit_spitft.o(i._ZN15Adafruit_SPITFT8endWriteEv) refers to adafruit_spitft.o(i._ZN15Adafruit_SPITFT11SPI_CS_HIGHEv) for Adafruit_SPITFT::SPI_CS_HIGH()
    adafruit_spitft.o(i._ZN15Adafruit_SPITFT8fillRectEsssst) refers to adafruit_spitft.o(i._ZN15Adafruit_SPITFT23writeFillRectPreclippedEsssst) for Adafruit_SPITFT::writeFillRectPreclipped(short, short, short, short, unsigned short)
    adafruit_spitft.o(i._ZN15Adafruit_SPITFT8spiWriteEh) refers to adafruit_spitft.o(i._ZN15Adafruit_SPITFT13SPI_MOSI_HIGHEv) for Adafruit_SPITFT::SPI_MOSI_HIGH()
    adafruit_spitft.o(i._ZN15Adafruit_SPITFT8spiWriteEh) refers to adafruit_spitft.o(i._ZN15Adafruit_SPITFT12SPI_MOSI_LOWEv) for Adafruit_SPITFT::SPI_MOSI_LOW()
    adafruit_spitft.o(i._ZN15Adafruit_SPITFT8spiWriteEh) refers to adafruit_spitft.o(i._ZN15Adafruit_SPITFT12SPI_SCK_HIGHEv) for Adafruit_SPITFT::SPI_SCK_HIGH()
    adafruit_spitft.o(i._ZN15Adafruit_SPITFT8spiWriteEh) refers to adafruit_spitft.o(i._ZN15Adafruit_SPITFT11SPI_SCK_LOWEv) for Adafruit_SPITFT::SPI_SCK_LOW()
    adafruit_spitft.o(i._ZN15Adafruit_SPITFT8spiWriteEh) refers to adafruit_spitft.o(i._ZN15Adafruit_SPITFT13TFT_WR_STROBEEv) for Adafruit_SPITFT::TFT_WR_STROBE()
    adafruit_spitft.o(i._ZN15Adafruit_SPITFT9drawPixelEsst) refers to adafruit_spitft.o(i._ZN15Adafruit_SPITFT11SPI_WRITE16Et) for Adafruit_SPITFT::SPI_WRITE16(unsigned short)
    adafruit_spitft.o(i._ZN15Adafruit_SPITFT9pushColorEt) refers to adafruit_spitft.o(i._ZN15Adafruit_SPITFT11SPI_WRITE16Et) for Adafruit_SPITFT::SPI_WRITE16(unsigned short)
    adafruit_spitft.o(i._ZN15Adafruit_SPITFTC2Ett11tftBusWidthaaaaaa) refers to adafruit_gfx.o(i._ZN12Adafruit_GFXC2Ess) for Adafruit_GFX::Adafruit_GFX__sub_object(short, short)
    adafruit_spitft.o(i._ZN15Adafruit_SPITFTC2Ett11tftBusWidthaaaaaa) refers to adafruit_spitft.o(.constdata__ZTV15Adafruit_SPITFT) for vtable for Adafruit_SPITFT
    adafruit_spitft.o(i._ZN15Adafruit_SPITFTC2EttP8SPIClassaaa) refers to adafruit_gfx.o(i._ZN12Adafruit_GFXC2Ess) for Adafruit_GFX::Adafruit_GFX__sub_object(short, short)
    adafruit_spitft.o(i._ZN15Adafruit_SPITFTC2EttP8SPIClassaaa) refers to adafruit_spitft.o(.constdata__ZTV15Adafruit_SPITFT) for vtable for Adafruit_SPITFT
    adafruit_spitft.o(i._ZN15Adafruit_SPITFTC2Ettaaa) refers to adafruit_gfx.o(.constdata__ZTV12Adafruit_GFX) for vtable for Adafruit_GFX
    adafruit_spitft.o(i._ZN15Adafruit_SPITFTC2Ettaaa) refers to adafruit_spitft.o(.constdata__ZTV15Adafruit_SPITFT) for vtable for Adafruit_SPITFT
    adafruit_spitft.o(i._ZN15Adafruit_SPITFTC2Ettaaaaaa) refers to adafruit_gfx.o(i._ZN12Adafruit_GFXC2Ess) for Adafruit_GFX::Adafruit_GFX__sub_object(short, short)
    adafruit_spitft.o(i._ZN15Adafruit_SPITFTC2Ettaaaaaa) refers to adafruit_spitft.o(.constdata__ZTV15Adafruit_SPITFT) for vtable for Adafruit_SPITFT
    adafruit_spitft.o(.ARM.exidx) refers to adafruit_spitft.o(i._ZN15Adafruit_SPITFTC2Ettaaaaaa) for i._ZN15Adafruit_SPITFTC2Ettaaaaaa
    adafruit_spitft.o(.ARM.exidx) refers to adafruit_spitft.o(i._ZN15Adafruit_SPITFTC2Ettaaa) for i._ZN15Adafruit_SPITFTC2Ettaaa
    adafruit_spitft.o(.ARM.exidx) refers to adafruit_spitft.o(i._ZN15Adafruit_SPITFTC2EttP8SPIClassaaa) for i._ZN15Adafruit_SPITFTC2EttP8SPIClassaaa
    adafruit_spitft.o(.ARM.exidx) refers to adafruit_spitft.o(i._ZN15Adafruit_SPITFTC2Ett11tftBusWidthaaaaaa) for i._ZN15Adafruit_SPITFTC2Ett11tftBusWidthaaaaaa
    adafruit_spitft.o(.ARM.exidx) refers to adafruit_spitft.o(i._ZN15Adafruit_SPITFT7initSPIEjh) for i._ZN15Adafruit_SPITFT7initSPIEjh
    adafruit_spitft.o(.ARM.exidx) refers to adafruit_spitft.o(i._ZN15Adafruit_SPITFT11setSPISpeedEj) for i._ZN15Adafruit_SPITFT11setSPISpeedEj
    adafruit_spitft.o(.ARM.exidx) refers to adafruit_spitft.o(i._ZN15Adafruit_SPITFT10startWriteEv) for i._ZN15Adafruit_SPITFT10startWriteEv
    adafruit_spitft.o(.ARM.exidx) refers to adafruit_spitft.o(i._ZN15Adafruit_SPITFT8endWriteEv) for i._ZN15Adafruit_SPITFT8endWriteEv
    adafruit_spitft.o(.ARM.exidx) refers to adafruit_spitft.o(i._ZN15Adafruit_SPITFT8spiWriteEh) for i._ZN15Adafruit_SPITFT8spiWriteEh
    adafruit_spitft.o(.ARM.exidx) refers to adafruit_spitft.o(i._ZN15Adafruit_SPITFT11SPI_WRITE16Et) for i._ZN15Adafruit_SPITFT11SPI_WRITE16Et
    adafruit_spitft.o(.ARM.exidx) refers to adafruit_spitft.o(i._ZN15Adafruit_SPITFT11sendCommandEhPhh) for i._ZN15Adafruit_SPITFT11sendCommandEhPhh
    adafruit_spitft.o(.ARM.exidx) refers to adafruit_spitft.o(i._ZN15Adafruit_SPITFT11sendCommandEhPKhh) for i._ZN15Adafruit_SPITFT11sendCommandEhPKhh
    adafruit_spitft.o(.ARM.exidx) refers to adafruit_spitft.o(i._ZN15Adafruit_SPITFT13sendCommand16EtPKhh) for i._ZN15Adafruit_SPITFT13sendCommand16EtPKhh
    adafruit_spitft.o(.ARM.exidx) refers to adafruit_spitft.o(i._ZN15Adafruit_SPITFT7spiReadEv) for i._ZN15Adafruit_SPITFT7spiReadEv
    adafruit_spitft.o(.ARM.exidx) refers to adafruit_spitft.o(i._ZN15Adafruit_SPITFT12readcommand8Ehh) for i._ZN15Adafruit_SPITFT12readcommand8Ehh
    adafruit_spitft.o(.ARM.exidx) refers to adafruit_spitft.o(i._ZN15Adafruit_SPITFT13readcommand16Et) for i._ZN15Adafruit_SPITFT13readcommand16Et
    adafruit_spitft.o(.ARM.exidx) refers to adafruit_spitft.o(i._ZN15Adafruit_SPITFT10writePixelEsst) for i._ZN15Adafruit_SPITFT10writePixelEsst
    adafruit_spitft.o(.ARM.exidx) refers to adafruit_spitft.o(i._ZN15Adafruit_SPITFT11writePixelsEPtjbb) for i._ZN15Adafruit_SPITFT11writePixelsEPtjbb
    adafruit_spitft.o(.ARM.exidx) refers to adafruit_spitft.o(i._ZN15Adafruit_SPITFT10writeColorEtj) for i._ZN15Adafruit_SPITFT10writeColorEtj
    adafruit_spitft.o(.ARM.exidx) refers to adafruit_spitft.o(i._ZN15Adafruit_SPITFT13writeFillRectEsssst) for i._ZN15Adafruit_SPITFT13writeFillRectEsssst
    adafruit_spitft.o(.ARM.exidx) refers to adafruit_spitft.o(i._ZN15Adafruit_SPITFT7dmaWaitEv) for i._ZN15Adafruit_SPITFT7dmaWaitEv
    adafruit_spitft.o(.ARM.exidx) refers to adafruit_spitft.o(i._ZN15Adafruit_SPITFT9drawPixelEsst) for i._ZN15Adafruit_SPITFT9drawPixelEsst
    adafruit_spitft.o(.ARM.exidx) refers to adafruit_spitft.o(i._ZN15Adafruit_SPITFT8fillRectEsssst) for i._ZN15Adafruit_SPITFT8fillRectEsssst
    adafruit_spitft.o(.ARM.exidx) refers to adafruit_spitft.o(i._ZN15Adafruit_SPITFT13drawFastHLineEssst) for i._ZN15Adafruit_SPITFT13drawFastHLineEssst
    adafruit_spitft.o(.ARM.exidx) refers to adafruit_spitft.o(i._ZN15Adafruit_SPITFT13drawFastVLineEssst) for i._ZN15Adafruit_SPITFT13drawFastVLineEssst
    adafruit_spitft.o(.ARM.exidx) refers to adafruit_spitft.o(i._ZN15Adafruit_SPITFT9pushColorEt) for i._ZN15Adafruit_SPITFT9pushColorEt
    adafruit_spitft.o(.ARM.exidx) refers to adafruit_spitft.o(i._ZN15Adafruit_SPITFT13drawRGBBitmapEssPtss) for i._ZN15Adafruit_SPITFT13drawRGBBitmapEssPtss
    adafruit_spitft.o(.ARM.exidx) refers to adafruit_spitft.o(i._ZN15Adafruit_SPITFT12writeCommandEh) for i._ZN15Adafruit_SPITFT12writeCommandEh
    adafruit_spitft.o(.ARM.exidx) refers to adafruit_spitft.o(i._ZN15Adafruit_SPITFT13invertDisplayEb) for i._ZN15Adafruit_SPITFT13invertDisplayEb
    adafruit_spitft.o(.ARM.exidx) refers to adafruit_spitft.o(i._ZN15Adafruit_SPITFT8color565Ehhh) for i._ZN15Adafruit_SPITFT8color565Ehhh
    adafruit_spitft.o(.ARM.exidx) refers to adafruit_spitft.o(i._ZN15Adafruit_SPITFT7write16Et) for i._ZN15Adafruit_SPITFT7write16Et
    adafruit_spitft.o(.ARM.exidx) refers to adafruit_spitft.o(i._ZN15Adafruit_SPITFT14writeCommand16Et) for i._ZN15Adafruit_SPITFT14writeCommand16Et
    adafruit_spitft.o(.ARM.exidx) refers to adafruit_spitft.o(i._ZN15Adafruit_SPITFT6read16Ev) for i._ZN15Adafruit_SPITFT6read16Ev
    adafruit_spitft.o(.ARM.exidx) refers to adafruit_spitft.o(i._ZN15Adafruit_SPITFT11SPI_WRITE32Ej) for i._ZN15Adafruit_SPITFT11SPI_WRITE32Ej
    adafruit_il0373.o(i._ZN15Adafruit_IL037314displayPartialEtttt) refers to adafruit_epd.o(i._ZN12Adafruit_EPD11EPD_commandEhb) for Adafruit_EPD::EPD_command(unsigned char, bool)
    adafruit_il0373.o(i._ZN15Adafruit_IL037314displayPartialEtttt) refers to adafruit_epd.o(i._ZN12Adafruit_EPD11EPD_commandEhPKht) for Adafruit_EPD::EPD_command(unsigned char, const unsigned char*, unsigned short)
    adafruit_il0373.o(i._ZN15Adafruit_IL037314displayPartialEtttt) refers to adafruit_epd.o(i._ZN12Adafruit_EPD6dcHighEv) for Adafruit_EPD::dcHigh()
    adafruit_il0373.o(i._ZN15Adafruit_IL037314displayPartialEtttt) refers to adafruit_epd.o(i._ZN12Adafruit_EPD11SPItransferEh) for Adafruit_EPD::SPItransfer(unsigned char)
    adafruit_il0373.o(i._ZN15Adafruit_IL037314displayPartialEtttt) refers to adafruit_epd.o(i._ZN12Adafruit_EPD6csHighEv) for Adafruit_EPD::csHigh()
    adafruit_il0373.o(i._ZN15Adafruit_IL037315writeRAMCommandEh) refers to adafruit_epd.o(i._ZN12Adafruit_EPD11EPD_commandEhb) for Adafruit_EPD::EPD_command(unsigned char, bool)
    adafruit_il0373.o(i._ZN15Adafruit_IL03735beginEb) refers to adafruit_epd.o(i._ZN12Adafruit_EPD5beginEb) for Adafruit_EPD::begin(bool)
    adafruit_il0373.o(i._ZN15Adafruit_IL03735beginEb) refers to adafruit_epd.o(i._ZN12Adafruit_EPD14setBlackBufferEab) for Adafruit_EPD::setBlackBuffer(signed char, bool)
    adafruit_il0373.o(i._ZN15Adafruit_IL03735beginEb) refers to adafruit_epd.o(i._ZN12Adafruit_EPD14setColorBufferEab) for Adafruit_EPD::setColorBuffer(signed char, bool)
    adafruit_il0373.o(i._ZN15Adafruit_IL03736updateEv) refers to adafruit_epd.o(i._ZN12Adafruit_EPD11EPD_commandEhb) for Adafruit_EPD::EPD_command(unsigned char, bool)
    adafruit_il0373.o(i._ZN15Adafruit_IL03737powerUpEv) refers to adafruit_epd.o(i._ZN12Adafruit_EPD13hardwareResetEv) for Adafruit_EPD::hardwareReset()
    adafruit_il0373.o(i._ZN15Adafruit_IL03737powerUpEv) refers to adafruit_epd.o(i._ZN12Adafruit_EPD15EPD_commandListEPKh) for Adafruit_EPD::EPD_commandList(const unsigned char*)
    adafruit_il0373.o(i._ZN15Adafruit_IL03737powerUpEv) refers to adafruit_epd.o(i._ZN12Adafruit_EPD11EPD_commandEhPKht) for Adafruit_EPD::EPD_command(unsigned char, const unsigned char*, unsigned short)
    adafruit_il0373.o(i._ZN15Adafruit_IL03737powerUpEv) refers to adafruit_il0373.o(.constdata) for il0373_default_init_code
    adafruit_il0373.o(i._ZN15Adafruit_IL03739powerDownEv) refers to adafruit_epd.o(i._ZN12Adafruit_EPD11EPD_commandEhPKht) for Adafruit_EPD::EPD_command(unsigned char, const unsigned char*, unsigned short)
    adafruit_il0373.o(i._ZN15Adafruit_IL03739powerDownEv) refers to adafruit_epd.o(i._ZN12Adafruit_EPD11EPD_commandEhb) for Adafruit_EPD::EPD_command(unsigned char, bool)
    adafruit_il0373.o(i._ZN15Adafruit_IL0373C1EiiaaaaaP8SPIClass) refers to adafruit_epd.o(i._ZN12Adafruit_EPDC2EiiaaaaaP8SPIClass) for Adafruit_EPD::Adafruit_EPD__sub_object(int, int, signed char, signed char, signed char, signed char, signed char, SPIClass*)
    adafruit_il0373.o(i._ZN15Adafruit_IL0373C1EiiaaaaaP8SPIClass) refers to h1_alloc.o(.text) for malloc
    adafruit_il0373.o(i._ZN15Adafruit_IL0373C1EiiaaaaaP8SPIClass) refers to adafruit_il0373.o(.constdata__ZTV15Adafruit_IL0373) for vtable for Adafruit_IL0373
    adafruit_il0373.o(i._ZN15Adafruit_IL0373C1Eiiaaaaaaaa) refers to adafruit_epd.o(i._ZN12Adafruit_EPDC2Eiiaaaaaaaa) for Adafruit_EPD::Adafruit_EPD__sub_object(int, int, signed char, signed char, signed char, signed char, signed char, signed char, signed char, signed char)
    adafruit_il0373.o(i._ZN15Adafruit_IL0373C1Eiiaaaaaaaa) refers to h1_alloc.o(.text) for malloc
    adafruit_il0373.o(i._ZN15Adafruit_IL0373C1Eiiaaaaaaaa) refers to adafruit_il0373.o(.constdata__ZTV15Adafruit_IL0373) for vtable for Adafruit_IL0373
    adafruit_il0373.o(.ARM.exidx) refers to adafruit_il0373.o(i._ZN15Adafruit_IL0373C1Eiiaaaaaaaa) for i._ZN15Adafruit_IL0373C1Eiiaaaaaaaa
    adafruit_il0373.o(.ARM.exidx) refers to adafruit_il0373.o(i._ZN15Adafruit_IL0373C1EiiaaaaaP8SPIClass) for i._ZN15Adafruit_IL0373C1EiiaaaaaP8SPIClass
    adafruit_il0373.o(.ARM.exidx) refers to adafruit_il0373.o(i._ZN15Adafruit_IL03735beginEb) for i._ZN15Adafruit_IL03735beginEb
    adafruit_il0373.o(.ARM.exidx) refers to adafruit_il0373.o(i._ZN15Adafruit_IL03737powerUpEv) for i._ZN15Adafruit_IL03737powerUpEv
    adafruit_il0373.o(.ARM.exidx) refers to adafruit_il0373.o(i._ZN15Adafruit_IL03739powerDownEv) for i._ZN15Adafruit_IL03739powerDownEv
    adafruit_il0373.o(.ARM.exidx) refers to adafruit_il0373.o(i._ZN15Adafruit_IL03736updateEv) for i._ZN15Adafruit_IL03736updateEv
    adafruit_il0373.o(.ARM.exidx) refers to adafruit_il0373.o(i._ZN15Adafruit_IL037314displayPartialEtttt) for i._ZN15Adafruit_IL037314displayPartialEtttt
    adafruit_il0373.o(.ARM.exidx) refers to adafruit_il0373.o(i._ZN15Adafruit_IL037315writeRAMCommandEh) for i._ZN15Adafruit_IL037315writeRAMCommandEh
    adafruit_il0373.o(.ARM.exidx) refers to adafruit_il0373.o(i._ZN15Adafruit_IL037313setRAMAddressEtt) for i._ZN15Adafruit_IL037313setRAMAddressEtt
    adafruit_il0373.o(.ARM.exidx) refers to adafruit_il0373.o(i._ZN15Adafruit_IL03739busy_waitEv) for i._ZN15Adafruit_IL03739busy_waitEv
    adafruit_il0398.o(i._ZN15Adafruit_IL039815writeRAMCommandEh) refers to adafruit_epd.o(i._ZN12Adafruit_EPD11EPD_commandEhb) for Adafruit_EPD::EPD_command(unsigned char, bool)
    adafruit_il0398.o(i._ZN15Adafruit_IL03985beginEb) refers to adafruit_epd.o(i._ZN12Adafruit_EPD5beginEb) for Adafruit_EPD::begin(bool)
    adafruit_il0398.o(i._ZN15Adafruit_IL03985beginEb) refers to adafruit_epd.o(i._ZN12Adafruit_EPD14setBlackBufferEab) for Adafruit_EPD::setBlackBuffer(signed char, bool)
    adafruit_il0398.o(i._ZN15Adafruit_IL03985beginEb) refers to adafruit_epd.o(i._ZN12Adafruit_EPD14setColorBufferEab) for Adafruit_EPD::setColorBuffer(signed char, bool)
    adafruit_il0398.o(i._ZN15Adafruit_IL03986updateEv) refers to adafruit_epd.o(i._ZN12Adafruit_EPD11EPD_commandEhb) for Adafruit_EPD::EPD_command(unsigned char, bool)
    adafruit_il0398.o(i._ZN15Adafruit_IL03987powerUpEv) refers to adafruit_epd.o(i._ZN12Adafruit_EPD13hardwareResetEv) for Adafruit_EPD::hardwareReset()
    adafruit_il0398.o(i._ZN15Adafruit_IL03987powerUpEv) refers to adafruit_epd.o(i._ZN12Adafruit_EPD11EPD_commandEhPKht) for Adafruit_EPD::EPD_command(unsigned char, const unsigned char*, unsigned short)
    adafruit_il0398.o(i._ZN15Adafruit_IL03987powerUpEv) refers to adafruit_epd.o(i._ZN12Adafruit_EPD11EPD_commandEhb) for Adafruit_EPD::EPD_command(unsigned char, bool)
    adafruit_il0398.o(i._ZN15Adafruit_IL03989busy_waitEv) refers to adafruit_epd.o(i._ZN12Adafruit_EPD11EPD_commandEhb) for Adafruit_EPD::EPD_command(unsigned char, bool)
    adafruit_il0398.o(i._ZN15Adafruit_IL03989powerDownEv) refers to adafruit_epd.o(i._ZN12Adafruit_EPD11EPD_commandEhPKht) for Adafruit_EPD::EPD_command(unsigned char, const unsigned char*, unsigned short)
    adafruit_il0398.o(i._ZN15Adafruit_IL03989powerDownEv) refers to adafruit_epd.o(i._ZN12Adafruit_EPD11EPD_commandEhb) for Adafruit_EPD::EPD_command(unsigned char, bool)
    adafruit_il0398.o(i._ZN15Adafruit_IL0398C1Eiiaaaaa) refers to adafruit_epd.o(i._ZN12Adafruit_EPDC2EiiaaaaaP8SPIClass) for Adafruit_EPD::Adafruit_EPD__sub_object(int, int, signed char, signed char, signed char, signed char, signed char, SPIClass*)
    adafruit_il0398.o(i._ZN15Adafruit_IL0398C1Eiiaaaaa) refers to h1_alloc.o(.text) for malloc
    adafruit_il0398.o(i._ZN15Adafruit_IL0398C1Eiiaaaaa) refers to spi.o(.data) for SPI
    adafruit_il0398.o(i._ZN15Adafruit_IL0398C1Eiiaaaaa) refers to adafruit_il0398.o(.constdata__ZTV15Adafruit_IL0398) for vtable for Adafruit_IL0398
    adafruit_il0398.o(i._ZN15Adafruit_IL0398C1Eiiaaaaaaaa) refers to adafruit_epd.o(i._ZN12Adafruit_EPDC2Eiiaaaaaaaa) for Adafruit_EPD::Adafruit_EPD__sub_object(int, int, signed char, signed char, signed char, signed char, signed char, signed char, signed char, signed char)
    adafruit_il0398.o(i._ZN15Adafruit_IL0398C1Eiiaaaaaaaa) refers to h1_alloc.o(.text) for malloc
    adafruit_il0398.o(i._ZN15Adafruit_IL0398C1Eiiaaaaaaaa) refers to adafruit_il0398.o(.constdata__ZTV15Adafruit_IL0398) for vtable for Adafruit_IL0398
    adafruit_il0398.o(.ARM.exidx) refers to adafruit_il0398.o(i._ZN15Adafruit_IL0398C1Eiiaaaaaaaa) for i._ZN15Adafruit_IL0398C1Eiiaaaaaaaa
    adafruit_il0398.o(.ARM.exidx) refers to adafruit_il0398.o(i._ZN15Adafruit_IL0398C1Eiiaaaaa) for i._ZN15Adafruit_IL0398C1Eiiaaaaa
    adafruit_il0398.o(.ARM.exidx) refers to adafruit_il0398.o(i._ZN15Adafruit_IL03985beginEb) for i._ZN15Adafruit_IL03985beginEb
    adafruit_il0398.o(.ARM.exidx) refers to adafruit_il0398.o(i._ZN15Adafruit_IL03987powerUpEv) for i._ZN15Adafruit_IL03987powerUpEv
    adafruit_il0398.o(.ARM.exidx) refers to adafruit_il0398.o(i._ZN15Adafruit_IL03986updateEv) for i._ZN15Adafruit_IL03986updateEv
    adafruit_il0398.o(.ARM.exidx) refers to adafruit_il0398.o(i._ZN15Adafruit_IL03989powerDownEv) for i._ZN15Adafruit_IL03989powerDownEv
    adafruit_il0398.o(.ARM.exidx) refers to adafruit_il0398.o(i._ZN15Adafruit_IL039815writeRAMCommandEh) for i._ZN15Adafruit_IL039815writeRAMCommandEh
    adafruit_il0398.o(.ARM.exidx) refers to adafruit_il0398.o(i._ZN15Adafruit_IL039813setRAMAddressEtt) for i._ZN15Adafruit_IL039813setRAMAddressEtt
    adafruit_il0398.o(.ARM.exidx) refers to adafruit_il0398.o(i._ZN15Adafruit_IL03989busy_waitEv) for i._ZN15Adafruit_IL03989busy_waitEv
    adafruit_il91874.o(i._ZN16Adafruit_IL9187415writeRAMCommandEh) refers to adafruit_epd.o(i._ZN12Adafruit_EPD11EPD_commandEhb) for Adafruit_EPD::EPD_command(unsigned char, bool)
    adafruit_il91874.o(i._ZN16Adafruit_IL918745beginEb) refers to adafruit_epd.o(i._ZN12Adafruit_EPD5beginEb) for Adafruit_EPD::begin(bool)
    adafruit_il91874.o(i._ZN16Adafruit_IL918745beginEb) refers to adafruit_epd.o(i._ZN12Adafruit_EPD14setBlackBufferEab) for Adafruit_EPD::setBlackBuffer(signed char, bool)
    adafruit_il91874.o(i._ZN16Adafruit_IL918745beginEb) refers to adafruit_epd.o(i._ZN12Adafruit_EPD14setColorBufferEab) for Adafruit_EPD::setColorBuffer(signed char, bool)
    adafruit_il91874.o(i._ZN16Adafruit_IL918746updateEv) refers to adafruit_epd.o(i._ZN12Adafruit_EPD11EPD_commandEhb) for Adafruit_EPD::EPD_command(unsigned char, bool)
    adafruit_il91874.o(i._ZN16Adafruit_IL918747powerUpEv) refers to adafruit_epd.o(i._ZN12Adafruit_EPD13hardwareResetEv) for Adafruit_EPD::hardwareReset()
    adafruit_il91874.o(i._ZN16Adafruit_IL918747powerUpEv) refers to adafruit_epd.o(i._ZN12Adafruit_EPD11EPD_commandEhb) for Adafruit_EPD::EPD_command(unsigned char, bool)
    adafruit_il91874.o(i._ZN16Adafruit_IL918747powerUpEv) refers to adafruit_epd.o(i._ZN12Adafruit_EPD11EPD_commandEhPKht) for Adafruit_EPD::EPD_command(unsigned char, const unsigned char*, unsigned short)
    adafruit_il91874.o(i._ZN16Adafruit_IL918747powerUpEv) refers to adafruit_il91874.o(.constdata) for lut_vcomDC
    adafruit_il91874.o(i._ZN16Adafruit_IL918749powerDownEv) refers to adafruit_epd.o(i._ZN12Adafruit_EPD11EPD_commandEhb) for Adafruit_EPD::EPD_command(unsigned char, bool)
    adafruit_il91874.o(i._ZN16Adafruit_IL918749powerDownEv) refers to adafruit_epd.o(i._ZN12Adafruit_EPD11EPD_commandEhPKht) for Adafruit_EPD::EPD_command(unsigned char, const unsigned char*, unsigned short)
    adafruit_il91874.o(i._ZN16Adafruit_IL91874C1EiiaaaaaP8SPIClass) refers to adafruit_epd.o(i._ZN12Adafruit_EPDC2EiiaaaaaP8SPIClass) for Adafruit_EPD::Adafruit_EPD__sub_object(int, int, signed char, signed char, signed char, signed char, signed char, SPIClass*)
    adafruit_il91874.o(i._ZN16Adafruit_IL91874C1EiiaaaaaP8SPIClass) refers to h1_alloc.o(.text) for malloc
    adafruit_il91874.o(i._ZN16Adafruit_IL91874C1EiiaaaaaP8SPIClass) refers to adafruit_il91874.o(.constdata__ZTV16Adafruit_IL91874) for vtable for Adafruit_IL91874
    adafruit_il91874.o(i._ZN16Adafruit_IL91874C1Eiiaaaaaaaa) refers to adafruit_epd.o(i._ZN12Adafruit_EPDC2Eiiaaaaaaaa) for Adafruit_EPD::Adafruit_EPD__sub_object(int, int, signed char, signed char, signed char, signed char, signed char, signed char, signed char, signed char)
    adafruit_il91874.o(i._ZN16Adafruit_IL91874C1Eiiaaaaaaaa) refers to h1_alloc.o(.text) for malloc
    adafruit_il91874.o(i._ZN16Adafruit_IL91874C1Eiiaaaaaaaa) refers to adafruit_il91874.o(.constdata__ZTV16Adafruit_IL91874) for vtable for Adafruit_IL91874
    adafruit_il91874.o(.ARM.exidx) refers to adafruit_il91874.o(i._ZN16Adafruit_IL91874C1Eiiaaaaaaaa) for i._ZN16Adafruit_IL91874C1Eiiaaaaaaaa
    adafruit_il91874.o(.ARM.exidx) refers to adafruit_il91874.o(i._ZN16Adafruit_IL91874C1EiiaaaaaP8SPIClass) for i._ZN16Adafruit_IL91874C1EiiaaaaaP8SPIClass
    adafruit_il91874.o(.ARM.exidx) refers to adafruit_il91874.o(i._ZN16Adafruit_IL918745beginEb) for i._ZN16Adafruit_IL918745beginEb
    adafruit_il91874.o(.ARM.exidx) refers to adafruit_il91874.o(i._ZN16Adafruit_IL918747powerUpEv) for i._ZN16Adafruit_IL918747powerUpEv
    adafruit_il91874.o(.ARM.exidx) refers to adafruit_il91874.o(i._ZN16Adafruit_IL918746updateEv) for i._ZN16Adafruit_IL918746updateEv
    adafruit_il91874.o(.ARM.exidx) refers to adafruit_il91874.o(i._ZN16Adafruit_IL918749powerDownEv) for i._ZN16Adafruit_IL918749powerDownEv
    adafruit_il91874.o(.ARM.exidx) refers to adafruit_il91874.o(i._ZN16Adafruit_IL9187415writeRAMCommandEh) for i._ZN16Adafruit_IL9187415writeRAMCommandEh
    adafruit_il91874.o(.ARM.exidx) refers to adafruit_il91874.o(i._ZN16Adafruit_IL9187413setRAMAddressEtt) for i._ZN16Adafruit_IL9187413setRAMAddressEtt
    adafruit_il91874.o(.ARM.exidx) refers to adafruit_il91874.o(i._ZN16Adafruit_IL918749busy_waitEv) for i._ZN16Adafruit_IL918749busy_waitEv
    adafruit_ssd1608.o(i._ZN16Adafruit_SSD160813setRAMAddressEtt) refers to adafruit_epd.o(i._ZN12Adafruit_EPD11EPD_commandEhPKht) for Adafruit_EPD::EPD_command(unsigned char, const unsigned char*, unsigned short)
    adafruit_ssd1608.o(i._ZN16Adafruit_SSD160815writeRAMCommandEh) refers to adafruit_epd.o(i._ZN12Adafruit_EPD11EPD_commandEhb) for Adafruit_EPD::EPD_command(unsigned char, bool)
    adafruit_ssd1608.o(i._ZN16Adafruit_SSD16085beginEb) refers to adafruit_epd.o(i._ZN12Adafruit_EPD5beginEb) for Adafruit_EPD::begin(bool)
    adafruit_ssd1608.o(i._ZN16Adafruit_SSD16085beginEb) refers to adafruit_epd.o(i._ZN12Adafruit_EPD14setBlackBufferEab) for Adafruit_EPD::setBlackBuffer(signed char, bool)
    adafruit_ssd1608.o(i._ZN16Adafruit_SSD16085beginEb) refers to adafruit_epd.o(i._ZN12Adafruit_EPD14setColorBufferEab) for Adafruit_EPD::setColorBuffer(signed char, bool)
    adafruit_ssd1608.o(i._ZN16Adafruit_SSD16086updateEv) refers to adafruit_epd.o(i._ZN12Adafruit_EPD11EPD_commandEhPKht) for Adafruit_EPD::EPD_command(unsigned char, const unsigned char*, unsigned short)
    adafruit_ssd1608.o(i._ZN16Adafruit_SSD16086updateEv) refers to adafruit_epd.o(i._ZN12Adafruit_EPD11EPD_commandEhb) for Adafruit_EPD::EPD_command(unsigned char, bool)
    adafruit_ssd1608.o(i._ZN16Adafruit_SSD16087powerUpEv) refers to adafruit_epd.o(i._ZN12Adafruit_EPD13hardwareResetEv) for Adafruit_EPD::hardwareReset()
    adafruit_ssd1608.o(i._ZN16Adafruit_SSD16087powerUpEv) refers to adafruit_epd.o(i._ZN12Adafruit_EPD11EPD_commandEhb) for Adafruit_EPD::EPD_command(unsigned char, bool)
    adafruit_ssd1608.o(i._ZN16Adafruit_SSD16087powerUpEv) refers to adafruit_epd.o(i._ZN12Adafruit_EPD11EPD_commandEhPKht) for Adafruit_EPD::EPD_command(unsigned char, const unsigned char*, unsigned short)
    adafruit_ssd1608.o(i._ZN16Adafruit_SSD16087powerUpEv) refers to adafruit_ssd1608.o(.constdata) for LUT_DATA
    adafruit_ssd1608.o(i._ZN16Adafruit_SSD16089powerDownEv) refers to adafruit_epd.o(i._ZN12Adafruit_EPD11EPD_commandEhPKht) for Adafruit_EPD::EPD_command(unsigned char, const unsigned char*, unsigned short)
    adafruit_ssd1608.o(i._ZN16Adafruit_SSD1608C1EiiaaaaaP8SPIClass) refers to adafruit_epd.o(i._ZN12Adafruit_EPDC2EiiaaaaaP8SPIClass) for Adafruit_EPD::Adafruit_EPD__sub_object(int, int, signed char, signed char, signed char, signed char, signed char, SPIClass*)
    adafruit_ssd1608.o(i._ZN16Adafruit_SSD1608C1EiiaaaaaP8SPIClass) refers to h1_alloc.o(.text) for malloc
    adafruit_ssd1608.o(i._ZN16Adafruit_SSD1608C1EiiaaaaaP8SPIClass) refers to adafruit_ssd1608.o(.constdata__ZTV16Adafruit_SSD1608) for vtable for Adafruit_SSD1608
    adafruit_ssd1608.o(i._ZN16Adafruit_SSD1608C1Eiiaaaaaaaa) refers to adafruit_epd.o(i._ZN12Adafruit_EPDC2Eiiaaaaaaaa) for Adafruit_EPD::Adafruit_EPD__sub_object(int, int, signed char, signed char, signed char, signed char, signed char, signed char, signed char, signed char)
    adafruit_ssd1608.o(i._ZN16Adafruit_SSD1608C1Eiiaaaaaaaa) refers to h1_alloc.o(.text) for malloc
    adafruit_ssd1608.o(i._ZN16Adafruit_SSD1608C1Eiiaaaaaaaa) refers to adafruit_ssd1608.o(.constdata__ZTV16Adafruit_SSD1608) for vtable for Adafruit_SSD1608
    adafruit_ssd1608.o(.ARM.exidx) refers to adafruit_ssd1608.o(i._ZN16Adafruit_SSD1608C1Eiiaaaaaaaa) for i._ZN16Adafruit_SSD1608C1Eiiaaaaaaaa
    adafruit_ssd1608.o(.ARM.exidx) refers to adafruit_ssd1608.o(i._ZN16Adafruit_SSD1608C1EiiaaaaaP8SPIClass) for i._ZN16Adafruit_SSD1608C1EiiaaaaaP8SPIClass
    adafruit_ssd1608.o(.ARM.exidx) refers to adafruit_ssd1608.o(i._ZN16Adafruit_SSD16085beginEb) for i._ZN16Adafruit_SSD16085beginEb
    adafruit_ssd1608.o(.ARM.exidx) refers to adafruit_ssd1608.o(i._ZN16Adafruit_SSD16087powerUpEv) for i._ZN16Adafruit_SSD16087powerUpEv
    adafruit_ssd1608.o(.ARM.exidx) refers to adafruit_ssd1608.o(i._ZN16Adafruit_SSD16089powerDownEv) for i._ZN16Adafruit_SSD16089powerDownEv
    adafruit_ssd1608.o(.ARM.exidx) refers to adafruit_ssd1608.o(i._ZN16Adafruit_SSD16086updateEv) for i._ZN16Adafruit_SSD16086updateEv
    adafruit_ssd1608.o(.ARM.exidx) refers to adafruit_ssd1608.o(i._ZN16Adafruit_SSD160815writeRAMCommandEh) for i._ZN16Adafruit_SSD160815writeRAMCommandEh
    adafruit_ssd1608.o(.ARM.exidx) refers to adafruit_ssd1608.o(i._ZN16Adafruit_SSD160813setRAMAddressEtt) for i._ZN16Adafruit_SSD160813setRAMAddressEtt
    adafruit_ssd1608.o(.ARM.exidx) refers to adafruit_ssd1608.o(i._ZN16Adafruit_SSD16089busy_waitEv) for i._ZN16Adafruit_SSD16089busy_waitEv
    adafruit_ssd1619.o(i._ZN16Adafruit_SSD161912setRAMWindowEtttt) refers to adafruit_epd.o(i._ZN12Adafruit_EPD11EPD_commandEhPKht) for Adafruit_EPD::EPD_command(unsigned char, const unsigned char*, unsigned short)
    adafruit_ssd1619.o(i._ZN16Adafruit_SSD161913setRAMAddressEtt) refers to adafruit_epd.o(i._ZN12Adafruit_EPD11EPD_commandEhPKht) for Adafruit_EPD::EPD_command(unsigned char, const unsigned char*, unsigned short)
    adafruit_ssd1619.o(i._ZN16Adafruit_SSD161915writeRAMCommandEh) refers to adafruit_epd.o(i._ZN12Adafruit_EPD11EPD_commandEhb) for Adafruit_EPD::EPD_command(unsigned char, bool)
    adafruit_ssd1619.o(i._ZN16Adafruit_SSD16195beginEb) refers to adafruit_epd.o(i._ZN12Adafruit_EPD5beginEb) for Adafruit_EPD::begin(bool)
    adafruit_ssd1619.o(i._ZN16Adafruit_SSD16195beginEb) refers to adafruit_epd.o(i._ZN12Adafruit_EPD14setBlackBufferEab) for Adafruit_EPD::setBlackBuffer(signed char, bool)
    adafruit_ssd1619.o(i._ZN16Adafruit_SSD16195beginEb) refers to adafruit_epd.o(i._ZN12Adafruit_EPD14setColorBufferEab) for Adafruit_EPD::setColorBuffer(signed char, bool)
    adafruit_ssd1619.o(i._ZN16Adafruit_SSD16196updateEv) refers to adafruit_epd.o(i._ZN12Adafruit_EPD11EPD_commandEhPKht) for Adafruit_EPD::EPD_command(unsigned char, const unsigned char*, unsigned short)
    adafruit_ssd1619.o(i._ZN16Adafruit_SSD16196updateEv) refers to adafruit_epd.o(i._ZN12Adafruit_EPD11EPD_commandEhb) for Adafruit_EPD::EPD_command(unsigned char, bool)
    adafruit_ssd1619.o(i._ZN16Adafruit_SSD16197powerUpEv) refers to adafruit_epd.o(i._ZN12Adafruit_EPD13hardwareResetEv) for Adafruit_EPD::hardwareReset()
    adafruit_ssd1619.o(i._ZN16Adafruit_SSD16197powerUpEv) refers to adafruit_epd.o(i._ZN12Adafruit_EPD15EPD_commandListEPKh) for Adafruit_EPD::EPD_commandList(const unsigned char*)
    adafruit_ssd1619.o(i._ZN16Adafruit_SSD16197powerUpEv) refers to adafruit_epd.o(i._ZN12Adafruit_EPD11EPD_commandEhPKht) for Adafruit_EPD::EPD_command(unsigned char, const unsigned char*, unsigned short)
    adafruit_ssd1619.o(i._ZN16Adafruit_SSD16197powerUpEv) refers to adafruit_ssd1619.o(i._ZN16Adafruit_SSD161912setRAMWindowEtttt) for Adafruit_SSD1619::setRAMWindow(unsigned short, unsigned short, unsigned short, unsigned short)
    adafruit_ssd1619.o(i._ZN16Adafruit_SSD16197powerUpEv) refers to adafruit_ssd1619.o(.constdata) for ssd1619_default_init_code
    adafruit_ssd1619.o(i._ZN16Adafruit_SSD16199powerDownEv) refers to adafruit_epd.o(i._ZN12Adafruit_EPD11EPD_commandEhPKht) for Adafruit_EPD::EPD_command(unsigned char, const unsigned char*, unsigned short)
    adafruit_ssd1619.o(i._ZN16Adafruit_SSD16199powerDownEv) refers to adafruit_epd.o(i._ZN12Adafruit_EPD11EPD_commandEhb) for Adafruit_EPD::EPD_command(unsigned char, bool)
    adafruit_ssd1619.o(i._ZN16Adafruit_SSD1619C1EiiaaaaaP8SPIClass) refers to adafruit_epd.o(i._ZN12Adafruit_EPDC2EiiaaaaaP8SPIClass) for Adafruit_EPD::Adafruit_EPD__sub_object(int, int, signed char, signed char, signed char, signed char, signed char, SPIClass*)
    adafruit_ssd1619.o(i._ZN16Adafruit_SSD1619C1EiiaaaaaP8SPIClass) refers to h1_alloc.o(.text) for malloc
    adafruit_ssd1619.o(i._ZN16Adafruit_SSD1619C1EiiaaaaaP8SPIClass) refers to adafruit_ssd1619.o(.constdata__ZTV16Adafruit_SSD1619) for vtable for Adafruit_SSD1619
    adafruit_ssd1619.o(i._ZN16Adafruit_SSD1619C1Eiiaaaaaaaa) refers to adafruit_epd.o(i._ZN12Adafruit_EPDC2Eiiaaaaaaaa) for Adafruit_EPD::Adafruit_EPD__sub_object(int, int, signed char, signed char, signed char, signed char, signed char, signed char, signed char, signed char)
    adafruit_ssd1619.o(i._ZN16Adafruit_SSD1619C1Eiiaaaaaaaa) refers to h1_alloc.o(.text) for malloc
    adafruit_ssd1619.o(i._ZN16Adafruit_SSD1619C1Eiiaaaaaaaa) refers to adafruit_ssd1619.o(.constdata__ZTV16Adafruit_SSD1619) for vtable for Adafruit_SSD1619
    adafruit_ssd1619.o(.ARM.exidx) refers to adafruit_ssd1619.o(i._ZN16Adafruit_SSD1619C1Eiiaaaaaaaa) for i._ZN16Adafruit_SSD1619C1Eiiaaaaaaaa
    adafruit_ssd1619.o(.ARM.exidx) refers to adafruit_ssd1619.o(i._ZN16Adafruit_SSD1619C1EiiaaaaaP8SPIClass) for i._ZN16Adafruit_SSD1619C1EiiaaaaaP8SPIClass
    adafruit_ssd1619.o(.ARM.exidx) refers to adafruit_ssd1619.o(i._ZN16Adafruit_SSD16195beginEb) for i._ZN16Adafruit_SSD16195beginEb
    adafruit_ssd1619.o(.ARM.exidx) refers to adafruit_ssd1619.o(i._ZN16Adafruit_SSD161912setRAMWindowEtttt) for i._ZN16Adafruit_SSD161912setRAMWindowEtttt
    adafruit_ssd1619.o(.ARM.exidx) refers to adafruit_ssd1619.o(i._ZN16Adafruit_SSD16197powerUpEv) for i._ZN16Adafruit_SSD16197powerUpEv
    adafruit_ssd1619.o(.ARM.exidx) refers to adafruit_ssd1619.o(i._ZN16Adafruit_SSD16196updateEv) for i._ZN16Adafruit_SSD16196updateEv
    adafruit_ssd1619.o(.ARM.exidx) refers to adafruit_ssd1619.o(i._ZN16Adafruit_SSD16199powerDownEv) for i._ZN16Adafruit_SSD16199powerDownEv
    adafruit_ssd1619.o(.ARM.exidx) refers to adafruit_ssd1619.o(i._ZN16Adafruit_SSD161915writeRAMCommandEh) for i._ZN16Adafruit_SSD161915writeRAMCommandEh
    adafruit_ssd1619.o(.ARM.exidx) refers to adafruit_ssd1619.o(i._ZN16Adafruit_SSD161913setRAMAddressEtt) for i._ZN16Adafruit_SSD161913setRAMAddressEtt
    adafruit_ssd1619.o(.ARM.exidx) refers to adafruit_ssd1619.o(i._ZN16Adafruit_SSD16199busy_waitEv) for i._ZN16Adafruit_SSD16199busy_waitEv
    adafruit_ssd1675.o(i._ZN16Adafruit_SSD167513setRAMAddressEtt) refers to adafruit_epd.o(i._ZN12Adafruit_EPD11EPD_commandEhPKht) for Adafruit_EPD::EPD_command(unsigned char, const unsigned char*, unsigned short)
    adafruit_ssd1675.o(i._ZN16Adafruit_SSD167515writeRAMCommandEh) refers to adafruit_epd.o(i._ZN12Adafruit_EPD11EPD_commandEhb) for Adafruit_EPD::EPD_command(unsigned char, bool)
    adafruit_ssd1675.o(i._ZN16Adafruit_SSD16755beginEb) refers to adafruit_epd.o(i._ZN12Adafruit_EPD5beginEb) for Adafruit_EPD::begin(bool)
    adafruit_ssd1675.o(i._ZN16Adafruit_SSD16755beginEb) refers to adafruit_epd.o(i._ZN12Adafruit_EPD14setBlackBufferEab) for Adafruit_EPD::setBlackBuffer(signed char, bool)
    adafruit_ssd1675.o(i._ZN16Adafruit_SSD16755beginEb) refers to adafruit_epd.o(i._ZN12Adafruit_EPD14setColorBufferEab) for Adafruit_EPD::setColorBuffer(signed char, bool)
    adafruit_ssd1675.o(i._ZN16Adafruit_SSD16756updateEv) refers to adafruit_epd.o(i._ZN12Adafruit_EPD11EPD_commandEhPKht) for Adafruit_EPD::EPD_command(unsigned char, const unsigned char*, unsigned short)
    adafruit_ssd1675.o(i._ZN16Adafruit_SSD16756updateEv) refers to adafruit_epd.o(i._ZN12Adafruit_EPD11EPD_commandEhb) for Adafruit_EPD::EPD_command(unsigned char, bool)
    adafruit_ssd1675.o(i._ZN16Adafruit_SSD16757powerUpEv) refers to adafruit_epd.o(i._ZN12Adafruit_EPD13hardwareResetEv) for Adafruit_EPD::hardwareReset()
    adafruit_ssd1675.o(i._ZN16Adafruit_SSD16757powerUpEv) refers to adafruit_epd.o(i._ZN12Adafruit_EPD11EPD_commandEhb) for Adafruit_EPD::EPD_command(unsigned char, bool)
    adafruit_ssd1675.o(i._ZN16Adafruit_SSD16757powerUpEv) refers to adafruit_epd.o(i._ZN12Adafruit_EPD11EPD_commandEhPKht) for Adafruit_EPD::EPD_command(unsigned char, const unsigned char*, unsigned short)
    adafruit_ssd1675.o(i._ZN16Adafruit_SSD16757powerUpEv) refers to adafruit_ssd1675.o(.constdata) for LUT_DATA
    adafruit_ssd1675.o(i._ZN16Adafruit_SSD16759powerDownEv) refers to adafruit_epd.o(i._ZN12Adafruit_EPD11EPD_commandEhPKht) for Adafruit_EPD::EPD_command(unsigned char, const unsigned char*, unsigned short)
    adafruit_ssd1675.o(i._ZN16Adafruit_SSD16759powerDownEv) refers to adafruit_epd.o(i._ZN12Adafruit_EPD11EPD_commandEhb) for Adafruit_EPD::EPD_command(unsigned char, bool)
    adafruit_ssd1675.o(i._ZN16Adafruit_SSD1675C1EiiaaaaaP8SPIClass) refers to adafruit_epd.o(i._ZN12Adafruit_EPDC2EiiaaaaaP8SPIClass) for Adafruit_EPD::Adafruit_EPD__sub_object(int, int, signed char, signed char, signed char, signed char, signed char, SPIClass*)
    adafruit_ssd1675.o(i._ZN16Adafruit_SSD1675C1EiiaaaaaP8SPIClass) refers to h1_alloc.o(.text) for malloc
    adafruit_ssd1675.o(i._ZN16Adafruit_SSD1675C1EiiaaaaaP8SPIClass) refers to adafruit_ssd1675.o(.constdata__ZTV16Adafruit_SSD1675) for vtable for Adafruit_SSD1675
    adafruit_ssd1675.o(i._ZN16Adafruit_SSD1675C1Eiiaaaaaaaa) refers to adafruit_epd.o(i._ZN12Adafruit_EPDC2Eiiaaaaaaaa) for Adafruit_EPD::Adafruit_EPD__sub_object(int, int, signed char, signed char, signed char, signed char, signed char, signed char, signed char, signed char)
    adafruit_ssd1675.o(i._ZN16Adafruit_SSD1675C1Eiiaaaaaaaa) refers to h1_alloc.o(.text) for malloc
    adafruit_ssd1675.o(i._ZN16Adafruit_SSD1675C1Eiiaaaaaaaa) refers to adafruit_ssd1675.o(.constdata__ZTV16Adafruit_SSD1675) for vtable for Adafruit_SSD1675
    adafruit_ssd1675.o(.ARM.exidx) refers to adafruit_ssd1675.o(i._ZN16Adafruit_SSD1675C1Eiiaaaaaaaa) for i._ZN16Adafruit_SSD1675C1Eiiaaaaaaaa
    adafruit_ssd1675.o(.ARM.exidx) refers to adafruit_ssd1675.o(i._ZN16Adafruit_SSD1675C1EiiaaaaaP8SPIClass) for i._ZN16Adafruit_SSD1675C1EiiaaaaaP8SPIClass
    adafruit_ssd1675.o(.ARM.exidx) refers to adafruit_ssd1675.o(i._ZN16Adafruit_SSD16755beginEb) for i._ZN16Adafruit_SSD16755beginEb
    adafruit_ssd1675.o(.ARM.exidx) refers to adafruit_ssd1675.o(i._ZN16Adafruit_SSD16757powerUpEv) for i._ZN16Adafruit_SSD16757powerUpEv
    adafruit_ssd1675.o(.ARM.exidx) refers to adafruit_ssd1675.o(i._ZN16Adafruit_SSD16756updateEv) for i._ZN16Adafruit_SSD16756updateEv
    adafruit_ssd1675.o(.ARM.exidx) refers to adafruit_ssd1675.o(i._ZN16Adafruit_SSD16759powerDownEv) for i._ZN16Adafruit_SSD16759powerDownEv
    adafruit_ssd1675.o(.ARM.exidx) refers to adafruit_ssd1675.o(i._ZN16Adafruit_SSD167515writeRAMCommandEh) for i._ZN16Adafruit_SSD167515writeRAMCommandEh
    adafruit_ssd1675.o(.ARM.exidx) refers to adafruit_ssd1675.o(i._ZN16Adafruit_SSD167513setRAMAddressEtt) for i._ZN16Adafruit_SSD167513setRAMAddressEtt
    adafruit_ssd1675.o(.ARM.exidx) refers to adafruit_ssd1675.o(i._ZN16Adafruit_SSD16759busy_waitEv) for i._ZN16Adafruit_SSD16759busy_waitEv
    adafruit_ssd1675b.o(i._ZN17Adafruit_SSD1675B13setRAMAddressEtt) refers to adafruit_epd.o(i._ZN12Adafruit_EPD11EPD_commandEhPKht) for Adafruit_EPD::EPD_command(unsigned char, const unsigned char*, unsigned short)
    adafruit_ssd1675b.o(i._ZN17Adafruit_SSD1675B15writeRAMCommandEh) refers to adafruit_epd.o(i._ZN12Adafruit_EPD11EPD_commandEhb) for Adafruit_EPD::EPD_command(unsigned char, bool)
    adafruit_ssd1675b.o(i._ZN17Adafruit_SSD1675B5beginEb) refers to adafruit_epd.o(i._ZN12Adafruit_EPD5beginEb) for Adafruit_EPD::begin(bool)
    adafruit_ssd1675b.o(i._ZN17Adafruit_SSD1675B5beginEb) refers to adafruit_epd.o(i._ZN12Adafruit_EPD14setBlackBufferEab) for Adafruit_EPD::setBlackBuffer(signed char, bool)
    adafruit_ssd1675b.o(i._ZN17Adafruit_SSD1675B5beginEb) refers to adafruit_epd.o(i._ZN12Adafruit_EPD14setColorBufferEab) for Adafruit_EPD::setColorBuffer(signed char, bool)
    adafruit_ssd1675b.o(i._ZN17Adafruit_SSD1675B6updateEv) refers to adafruit_epd.o(i._ZN12Adafruit_EPD11EPD_commandEhPKht) for Adafruit_EPD::EPD_command(unsigned char, const unsigned char*, unsigned short)
    adafruit_ssd1675b.o(i._ZN17Adafruit_SSD1675B6updateEv) refers to adafruit_epd.o(i._ZN12Adafruit_EPD11EPD_commandEhb) for Adafruit_EPD::EPD_command(unsigned char, bool)
    adafruit_ssd1675b.o(i._ZN17Adafruit_SSD1675B7powerUpEv) refers to adafruit_epd.o(i._ZN12Adafruit_EPD13hardwareResetEv) for Adafruit_EPD::hardwareReset()
    adafruit_ssd1675b.o(i._ZN17Adafruit_SSD1675B7powerUpEv) refers to adafruit_epd.o(i._ZN12Adafruit_EPD11EPD_commandEhb) for Adafruit_EPD::EPD_command(unsigned char, bool)
    adafruit_ssd1675b.o(i._ZN17Adafruit_SSD1675B7powerUpEv) refers to adafruit_epd.o(i._ZN12Adafruit_EPD11EPD_commandEhPKht) for Adafruit_EPD::EPD_command(unsigned char, const unsigned char*, unsigned short)
    adafruit_ssd1675b.o(i._ZN17Adafruit_SSD1675B7powerUpEv) refers to adafruit_ssd1675b.o(.constdata) for LUT_DATA
    adafruit_ssd1675b.o(i._ZN17Adafruit_SSD1675B9powerDownEv) refers to adafruit_epd.o(i._ZN12Adafruit_EPD11EPD_commandEhPKht) for Adafruit_EPD::EPD_command(unsigned char, const unsigned char*, unsigned short)
    adafruit_ssd1675b.o(i._ZN17Adafruit_SSD1675B9powerDownEv) refers to adafruit_epd.o(i._ZN12Adafruit_EPD11EPD_commandEhb) for Adafruit_EPD::EPD_command(unsigned char, bool)
    adafruit_ssd1675b.o(i._ZN17Adafruit_SSD1675BC1EiiaaaaaP8SPIClass) refers to adafruit_epd.o(i._ZN12Adafruit_EPDC2EiiaaaaaP8SPIClass) for Adafruit_EPD::Adafruit_EPD__sub_object(int, int, signed char, signed char, signed char, signed char, signed char, SPIClass*)
    adafruit_ssd1675b.o(i._ZN17Adafruit_SSD1675BC1EiiaaaaaP8SPIClass) refers to h1_alloc.o(.text) for malloc
    adafruit_ssd1675b.o(i._ZN17Adafruit_SSD1675BC1EiiaaaaaP8SPIClass) refers to adafruit_ssd1675b.o(.constdata__ZTV17Adafruit_SSD1675B) for vtable for Adafruit_SSD1675B
    adafruit_ssd1675b.o(i._ZN17Adafruit_SSD1675BC1Eiiaaaaaaaa) refers to adafruit_epd.o(i._ZN12Adafruit_EPDC2Eiiaaaaaaaa) for Adafruit_EPD::Adafruit_EPD__sub_object(int, int, signed char, signed char, signed char, signed char, signed char, signed char, signed char, signed char)
    adafruit_ssd1675b.o(i._ZN17Adafruit_SSD1675BC1Eiiaaaaaaaa) refers to h1_alloc.o(.text) for malloc
    adafruit_ssd1675b.o(i._ZN17Adafruit_SSD1675BC1Eiiaaaaaaaa) refers to adafruit_ssd1675b.o(.constdata__ZTV17Adafruit_SSD1675B) for vtable for Adafruit_SSD1675B
    adafruit_ssd1675b.o(.ARM.exidx) refers to adafruit_ssd1675b.o(i._ZN17Adafruit_SSD1675BC1Eiiaaaaaaaa) for i._ZN17Adafruit_SSD1675BC1Eiiaaaaaaaa
    adafruit_ssd1675b.o(.ARM.exidx) refers to adafruit_ssd1675b.o(i._ZN17Adafruit_SSD1675BC1EiiaaaaaP8SPIClass) for i._ZN17Adafruit_SSD1675BC1EiiaaaaaP8SPIClass
    adafruit_ssd1675b.o(.ARM.exidx) refers to adafruit_ssd1675b.o(i._ZN17Adafruit_SSD1675B5beginEb) for i._ZN17Adafruit_SSD1675B5beginEb
    adafruit_ssd1675b.o(.ARM.exidx) refers to adafruit_ssd1675b.o(i._ZN17Adafruit_SSD1675B7powerUpEv) for i._ZN17Adafruit_SSD1675B7powerUpEv
    adafruit_ssd1675b.o(.ARM.exidx) refers to adafruit_ssd1675b.o(i._ZN17Adafruit_SSD1675B6updateEv) for i._ZN17Adafruit_SSD1675B6updateEv
    adafruit_ssd1675b.o(.ARM.exidx) refers to adafruit_ssd1675b.o(i._ZN17Adafruit_SSD1675B9powerDownEv) for i._ZN17Adafruit_SSD1675B9powerDownEv
    adafruit_ssd1675b.o(.ARM.exidx) refers to adafruit_ssd1675b.o(i._ZN17Adafruit_SSD1675B15writeRAMCommandEh) for i._ZN17Adafruit_SSD1675B15writeRAMCommandEh
    adafruit_ssd1675b.o(.ARM.exidx) refers to adafruit_ssd1675b.o(i._ZN17Adafruit_SSD1675B13setRAMAddressEtt) for i._ZN17Adafruit_SSD1675B13setRAMAddressEtt
    adafruit_ssd1675b.o(.ARM.exidx) refers to adafruit_ssd1675b.o(i._ZN17Adafruit_SSD1675B9busy_waitEv) for i._ZN17Adafruit_SSD1675B9busy_waitEv
    adafruit_ssd1680.o(i._ZN16Adafruit_SSD168013setRAMAddressEtt) refers to adafruit_epd.o(i._ZN12Adafruit_EPD11EPD_commandEhPKht) for Adafruit_EPD::EPD_command(unsigned char, const unsigned char*, unsigned short)
    adafruit_ssd1680.o(i._ZN16Adafruit_SSD168015writeRAMCommandEh) refers to adafruit_epd.o(i._ZN12Adafruit_EPD11EPD_commandEhb) for Adafruit_EPD::EPD_command(unsigned char, bool)
    adafruit_ssd1680.o(i._ZN16Adafruit_SSD16805beginEb) refers to adafruit_epd.o(i._ZN12Adafruit_EPD5beginEb) for Adafruit_EPD::begin(bool)
    adafruit_ssd1680.o(i._ZN16Adafruit_SSD16805beginEb) refers to adafruit_epd.o(i._ZN12Adafruit_EPD14setBlackBufferEab) for Adafruit_EPD::setBlackBuffer(signed char, bool)
    adafruit_ssd1680.o(i._ZN16Adafruit_SSD16805beginEb) refers to adafruit_epd.o(i._ZN12Adafruit_EPD14setColorBufferEab) for Adafruit_EPD::setColorBuffer(signed char, bool)
    adafruit_ssd1680.o(i._ZN16Adafruit_SSD16806updateEv) refers to adafruit_epd.o(i._ZN12Adafruit_EPD11EPD_commandEhPKht) for Adafruit_EPD::EPD_command(unsigned char, const unsigned char*, unsigned short)
    adafruit_ssd1680.o(i._ZN16Adafruit_SSD16806updateEv) refers to adafruit_epd.o(i._ZN12Adafruit_EPD11EPD_commandEhb) for Adafruit_EPD::EPD_command(unsigned char, bool)
    adafruit_ssd1680.o(i._ZN16Adafruit_SSD16807powerUpEv) refers to adafruit_epd.o(i._ZN12Adafruit_EPD13hardwareResetEv) for Adafruit_EPD::hardwareReset()
    adafruit_ssd1680.o(i._ZN16Adafruit_SSD16807powerUpEv) refers to adafruit_epd.o(i._ZN12Adafruit_EPD15EPD_commandListEPKh) for Adafruit_EPD::EPD_commandList(const unsigned char*)
    adafruit_ssd1680.o(i._ZN16Adafruit_SSD16807powerUpEv) refers to adafruit_epd.o(i._ZN12Adafruit_EPD11EPD_commandEhPKht) for Adafruit_EPD::EPD_command(unsigned char, const unsigned char*, unsigned short)
    adafruit_ssd1680.o(i._ZN16Adafruit_SSD16807powerUpEv) refers to adafruit_ssd1680.o(.constdata) for ssd1680_default_init_code
    adafruit_ssd1680.o(i._ZN16Adafruit_SSD16809powerDownEv) refers to adafruit_epd.o(i._ZN12Adafruit_EPD11EPD_commandEhPKht) for Adafruit_EPD::EPD_command(unsigned char, const unsigned char*, unsigned short)
    adafruit_ssd1680.o(i._ZN16Adafruit_SSD16809powerDownEv) refers to adafruit_epd.o(i._ZN12Adafruit_EPD11EPD_commandEhb) for Adafruit_EPD::EPD_command(unsigned char, bool)
    adafruit_ssd1680.o(i._ZN16Adafruit_SSD1680C1EiiaaaaaP8SPIClass) refers to adafruit_epd.o(i._ZN12Adafruit_EPDC2EiiaaaaaP8SPIClass) for Adafruit_EPD::Adafruit_EPD__sub_object(int, int, signed char, signed char, signed char, signed char, signed char, SPIClass*)
    adafruit_ssd1680.o(i._ZN16Adafruit_SSD1680C1EiiaaaaaP8SPIClass) refers to h1_alloc.o(.text) for malloc
    adafruit_ssd1680.o(i._ZN16Adafruit_SSD1680C1EiiaaaaaP8SPIClass) refers to adafruit_ssd1680.o(.constdata__ZTV16Adafruit_SSD1680) for vtable for Adafruit_SSD1680
    adafruit_ssd1680.o(i._ZN16Adafruit_SSD1680C1Eiiaaaaaaaa) refers to adafruit_epd.o(i._ZN12Adafruit_EPDC2Eiiaaaaaaaa) for Adafruit_EPD::Adafruit_EPD__sub_object(int, int, signed char, signed char, signed char, signed char, signed char, signed char, signed char, signed char)
    adafruit_ssd1680.o(i._ZN16Adafruit_SSD1680C1Eiiaaaaaaaa) refers to h1_alloc.o(.text) for malloc
    adafruit_ssd1680.o(i._ZN16Adafruit_SSD1680C1Eiiaaaaaaaa) refers to adafruit_ssd1680.o(.constdata__ZTV16Adafruit_SSD1680) for vtable for Adafruit_SSD1680
    adafruit_ssd1680.o(.ARM.exidx) refers to adafruit_ssd1680.o(i._ZN16Adafruit_SSD1680C1Eiiaaaaaaaa) for i._ZN16Adafruit_SSD1680C1Eiiaaaaaaaa
    adafruit_ssd1680.o(.ARM.exidx) refers to adafruit_ssd1680.o(i._ZN16Adafruit_SSD1680C1EiiaaaaaP8SPIClass) for i._ZN16Adafruit_SSD1680C1EiiaaaaaP8SPIClass
    adafruit_ssd1680.o(.ARM.exidx) refers to adafruit_ssd1680.o(i._ZN16Adafruit_SSD16805beginEb) for i._ZN16Adafruit_SSD16805beginEb
    adafruit_ssd1680.o(.ARM.exidx) refers to adafruit_ssd1680.o(i._ZN16Adafruit_SSD16807powerUpEv) for i._ZN16Adafruit_SSD16807powerUpEv
    adafruit_ssd1680.o(.ARM.exidx) refers to adafruit_ssd1680.o(i._ZN16Adafruit_SSD16806updateEv) for i._ZN16Adafruit_SSD16806updateEv
    adafruit_ssd1680.o(.ARM.exidx) refers to adafruit_ssd1680.o(i._ZN16Adafruit_SSD16809powerDownEv) for i._ZN16Adafruit_SSD16809powerDownEv
    adafruit_ssd1680.o(.ARM.exidx) refers to adafruit_ssd1680.o(i._ZN16Adafruit_SSD168015writeRAMCommandEh) for i._ZN16Adafruit_SSD168015writeRAMCommandEh
    adafruit_ssd1680.o(.ARM.exidx) refers to adafruit_ssd1680.o(i._ZN16Adafruit_SSD168013setRAMAddressEtt) for i._ZN16Adafruit_SSD168013setRAMAddressEtt
    adafruit_ssd1680.o(.ARM.exidx) refers to adafruit_ssd1680.o(i._ZN16Adafruit_SSD16809busy_waitEv) for i._ZN16Adafruit_SSD16809busy_waitEv
    adafruit_ssd1681.o(i._ZN16Adafruit_SSD168112setRAMWindowEtttt) refers to adafruit_epd.o(i._ZN12Adafruit_EPD11EPD_commandEhPKht) for Adafruit_EPD::EPD_command(unsigned char, const unsigned char*, unsigned short)
    adafruit_ssd1681.o(i._ZN16Adafruit_SSD168113setRAMAddressEtt) refers to adafruit_epd.o(i._ZN12Adafruit_EPD11EPD_commandEhPKht) for Adafruit_EPD::EPD_command(unsigned char, const unsigned char*, unsigned short)
    adafruit_ssd1681.o(i._ZN16Adafruit_SSD168113updatePartialEv) refers to adafruit_epd.o(i._ZN12Adafruit_EPD11EPD_commandEhPKht) for Adafruit_EPD::EPD_command(unsigned char, const unsigned char*, unsigned short)
    adafruit_ssd1681.o(i._ZN16Adafruit_SSD168113updatePartialEv) refers to adafruit_epd.o(i._ZN12Adafruit_EPD11EPD_commandEhb) for Adafruit_EPD::EPD_command(unsigned char, bool)
    adafruit_ssd1681.o(i._ZN16Adafruit_SSD168114displayPartialEtttt) refers to adafruit_ssd1681.o(i._ZN16Adafruit_SSD168112setRAMWindowEtttt) for Adafruit_SSD1681::setRAMWindow(unsigned short, unsigned short, unsigned short, unsigned short)
    adafruit_ssd1681.o(i._ZN16Adafruit_SSD168114displayPartialEtttt) refers to adafruit_epd.o(i._ZN12Adafruit_EPD6dcHighEv) for Adafruit_EPD::dcHigh()
    adafruit_ssd1681.o(i._ZN16Adafruit_SSD168114displayPartialEtttt) refers to adafruit_epd.o(i._ZN12Adafruit_EPD11SPItransferEh) for Adafruit_EPD::SPItransfer(unsigned char)
    adafruit_ssd1681.o(i._ZN16Adafruit_SSD168114displayPartialEtttt) refers to adafruit_epd.o(i._ZN12Adafruit_EPD6csHighEv) for Adafruit_EPD::csHigh()
    adafruit_ssd1681.o(i._ZN16Adafruit_SSD168114displayPartialEtttt) refers to adafruit_ssd1681.o(i._ZN16Adafruit_SSD168113updatePartialEv) for Adafruit_SSD1681::updatePartial()
    adafruit_ssd1681.o(i._ZN16Adafruit_SSD168115writeRAMCommandEh) refers to adafruit_epd.o(i._ZN12Adafruit_EPD11EPD_commandEhb) for Adafruit_EPD::EPD_command(unsigned char, bool)
    adafruit_ssd1681.o(i._ZN16Adafruit_SSD16815beginEb) refers to adafruit_epd.o(i._ZN12Adafruit_EPD5beginEb) for Adafruit_EPD::begin(bool)
    adafruit_ssd1681.o(i._ZN16Adafruit_SSD16815beginEb) refers to adafruit_epd.o(i._ZN12Adafruit_EPD14setBlackBufferEab) for Adafruit_EPD::setBlackBuffer(signed char, bool)
    adafruit_ssd1681.o(i._ZN16Adafruit_SSD16815beginEb) refers to adafruit_epd.o(i._ZN12Adafruit_EPD14setColorBufferEab) for Adafruit_EPD::setColorBuffer(signed char, bool)
    adafruit_ssd1681.o(i._ZN16Adafruit_SSD16816updateEv) refers to adafruit_epd.o(i._ZN12Adafruit_EPD11EPD_commandEhPKht) for Adafruit_EPD::EPD_command(unsigned char, const unsigned char*, unsigned short)
    adafruit_ssd1681.o(i._ZN16Adafruit_SSD16816updateEv) refers to adafruit_epd.o(i._ZN12Adafruit_EPD11EPD_commandEhb) for Adafruit_EPD::EPD_command(unsigned char, bool)
    adafruit_ssd1681.o(i._ZN16Adafruit_SSD16817powerUpEv) refers to adafruit_epd.o(i._ZN12Adafruit_EPD13hardwareResetEv) for Adafruit_EPD::hardwareReset()
    adafruit_ssd1681.o(i._ZN16Adafruit_SSD16817powerUpEv) refers to adafruit_epd.o(i._ZN12Adafruit_EPD15EPD_commandListEPKh) for Adafruit_EPD::EPD_commandList(const unsigned char*)
    adafruit_ssd1681.o(i._ZN16Adafruit_SSD16817powerUpEv) refers to adafruit_epd.o(i._ZN12Adafruit_EPD11EPD_commandEhPKht) for Adafruit_EPD::EPD_command(unsigned char, const unsigned char*, unsigned short)
    adafruit_ssd1681.o(i._ZN16Adafruit_SSD16817powerUpEv) refers to adafruit_ssd1681.o(i._ZN16Adafruit_SSD168112setRAMWindowEtttt) for Adafruit_SSD1681::setRAMWindow(unsigned short, unsigned short, unsigned short, unsigned short)
    adafruit_ssd1681.o(i._ZN16Adafruit_SSD16817powerUpEv) refers to adafruit_ssd1681.o(.constdata) for ssd1681_default_init_code
    adafruit_ssd1681.o(i._ZN16Adafruit_SSD16819powerDownEv) refers to adafruit_epd.o(i._ZN12Adafruit_EPD11EPD_commandEhPKht) for Adafruit_EPD::EPD_command(unsigned char, const unsigned char*, unsigned short)
    adafruit_ssd1681.o(i._ZN16Adafruit_SSD16819powerDownEv) refers to adafruit_epd.o(i._ZN12Adafruit_EPD11EPD_commandEhb) for Adafruit_EPD::EPD_command(unsigned char, bool)
    adafruit_ssd1681.o(i._ZN16Adafruit_SSD1681C1EiiaaaaaP8SPIClass) refers to adafruit_epd.o(i._ZN12Adafruit_EPDC2EiiaaaaaP8SPIClass) for Adafruit_EPD::Adafruit_EPD__sub_object(int, int, signed char, signed char, signed char, signed char, signed char, SPIClass*)
    adafruit_ssd1681.o(i._ZN16Adafruit_SSD1681C1EiiaaaaaP8SPIClass) refers to h1_alloc.o(.text) for malloc
    adafruit_ssd1681.o(i._ZN16Adafruit_SSD1681C1EiiaaaaaP8SPIClass) refers to adafruit_ssd1681.o(.constdata__ZTV16Adafruit_SSD1681) for vtable for Adafruit_SSD1681
    adafruit_ssd1681.o(i._ZN16Adafruit_SSD1681C1Eiiaaaaaaaa) refers to adafruit_epd.o(i._ZN12Adafruit_EPDC2Eiiaaaaaaaa) for Adafruit_EPD::Adafruit_EPD__sub_object(int, int, signed char, signed char, signed char, signed char, signed char, signed char, signed char, signed char)
    adafruit_ssd1681.o(i._ZN16Adafruit_SSD1681C1Eiiaaaaaaaa) refers to h1_alloc.o(.text) for malloc
    adafruit_ssd1681.o(i._ZN16Adafruit_SSD1681C1Eiiaaaaaaaa) refers to adafruit_ssd1681.o(.constdata__ZTV16Adafruit_SSD1681) for vtable for Adafruit_SSD1681
    adafruit_ssd1681.o(.ARM.exidx) refers to adafruit_ssd1681.o(i._ZN16Adafruit_SSD1681C1Eiiaaaaaaaa) for i._ZN16Adafruit_SSD1681C1Eiiaaaaaaaa
    adafruit_ssd1681.o(.ARM.exidx) refers to adafruit_ssd1681.o(i._ZN16Adafruit_SSD1681C1EiiaaaaaP8SPIClass) for i._ZN16Adafruit_SSD1681C1EiiaaaaaP8SPIClass
    adafruit_ssd1681.o(.ARM.exidx) refers to adafruit_ssd1681.o(i._ZN16Adafruit_SSD16815beginEb) for i._ZN16Adafruit_SSD16815beginEb
    adafruit_ssd1681.o(.ARM.exidx) refers to adafruit_ssd1681.o(i._ZN16Adafruit_SSD168112setRAMWindowEtttt) for i._ZN16Adafruit_SSD168112setRAMWindowEtttt
    adafruit_ssd1681.o(.ARM.exidx) refers to adafruit_ssd1681.o(i._ZN16Adafruit_SSD16817powerUpEv) for i._ZN16Adafruit_SSD16817powerUpEv
    adafruit_ssd1681.o(.ARM.exidx) refers to adafruit_ssd1681.o(i._ZN16Adafruit_SSD16816updateEv) for i._ZN16Adafruit_SSD16816updateEv
    adafruit_ssd1681.o(.ARM.exidx) refers to adafruit_ssd1681.o(i._ZN16Adafruit_SSD168113updatePartialEv) for i._ZN16Adafruit_SSD168113updatePartialEv
    adafruit_ssd1681.o(.ARM.exidx) refers to adafruit_ssd1681.o(i._ZN16Adafruit_SSD16819powerDownEv) for i._ZN16Adafruit_SSD16819powerDownEv
    adafruit_ssd1681.o(.ARM.exidx) refers to adafruit_ssd1681.o(i._ZN16Adafruit_SSD168114displayPartialEtttt) for i._ZN16Adafruit_SSD168114displayPartialEtttt
    adafruit_ssd1681.o(.ARM.exidx) refers to adafruit_ssd1681.o(i._ZN16Adafruit_SSD168115writeRAMCommandEh) for i._ZN16Adafruit_SSD168115writeRAMCommandEh
    adafruit_ssd1681.o(.ARM.exidx) refers to adafruit_ssd1681.o(i._ZN16Adafruit_SSD168113setRAMAddressEtt) for i._ZN16Adafruit_SSD168113setRAMAddressEtt
    adafruit_ssd1681.o(.ARM.exidx) refers to adafruit_ssd1681.o(i._ZN16Adafruit_SSD16819busy_waitEv) for i._ZN16Adafruit_SSD16819busy_waitEv
    spi.o(i.__sti___7_SPI_cpp_SPI) refers to spi.o(.data) for SPI
    spi.o(.ARM.exidx) refers to spi.o(i.__sti___7_SPI_cpp_SPI) for i.__sti___7_SPI_cpp_SPI
    spi.o(.init_array) refers to spi.o(i.__sti___7_SPI_cpp_SPI) for __sti___7_SPI_cpp_SPI
    spi.o(.init_array) refers to init_aeabi.o(.text) for __cpp_initialize__aeabi_
    arm_startup_nrf52840.o(STACK) refers (Special) to heapauxi.o(.text) for __use_two_region_memory
    arm_startup_nrf52840.o(HEAP) refers (Special) to heapauxi.o(.text) for __use_two_region_memory
    arm_startup_nrf52840.o(RESET) refers (Special) to heapauxi.o(.text) for __use_two_region_memory
    arm_startup_nrf52840.o(RESET) refers to arm_startup_nrf52840.o(STACK) for __initial_sp
    arm_startup_nrf52840.o(RESET) refers to arm_startup_nrf52840.o(.text) for Reset_Handler
    arm_startup_nrf52840.o(.text) refers (Special) to heapauxi.o(.text) for __use_two_region_memory
    arm_startup_nrf52840.o(.text) refers to system_nrf52840.o(i.SystemInit) for SystemInit
    arm_startup_nrf52840.o(.text) refers to __main.o(!!!main) for __main
    arm_startup_nrf52840.o(.text) refers to arm_startup_nrf52840.o(HEAP) for Heap_Mem
    arm_startup_nrf52840.o(.text) refers to arm_startup_nrf52840.o(STACK) for Stack_Mem
    system_nrf52840.o(i.SystemCoreClockUpdate) refers to system_nrf52840.o(.data) for SystemCoreClock
    system_nrf52840.o(i.SystemInit) refers to system_nrf52840.o(i.nrf52_errata_36) for nrf52_errata_36
    system_nrf52840.o(i.SystemInit) refers to system_nrf52840.o(i.nrf52_errata_66) for nrf52_errata_66
    system_nrf52840.o(i.SystemInit) refers to system_nrf52840.o(i.nrf52_errata_98) for nrf52_errata_98
    system_nrf52840.o(i.SystemInit) refers to system_nrf52840.o(i.nrf52_errata_103) for nrf52_errata_103
    system_nrf52840.o(i.SystemInit) refers to system_nrf52840.o(i.nrf52_errata_115) for nrf52_errata_115
    system_nrf52840.o(i.SystemInit) refers to system_nrf52840.o(i.nrf52_errata_120) for nrf52_errata_120
    system_nrf52840.o(i.SystemInit) refers to system_nrf52840.o(i.nrf52_errata_136) for nrf52_errata_136
    system_nrf52840.o(i.SystemInit) refers to system_nrf52840.o(i.SystemCoreClockUpdate) for SystemCoreClockUpdate
    malloc.o(.text) refers (Special) to hguard.o(.text) for __heap$guard
    malloc.o(.text) refers (Special) to init_alloc.o(.text) for _init_alloc
    malloc.o(.text) refers to rt_heap_descriptor_intlibspace.o(.text) for __rt_heap_descriptor
    malloc.o(.text) refers to heapstubs.o(.text) for __Heap_Alloc
    free.o(.text) refers (Special) to hguard.o(.text) for __heap$guard
    free.o(.text) refers to rt_heap_descriptor_intlibspace.o(.text) for __rt_heap_descriptor
    free.o(.text) refers to heapstubs.o(.text) for __Heap_Free
    h1_alloc.o(.text) refers (Special) to h1_init.o(.text) for __Heap_Initialize
    h1_alloc.o(.text) refers to rt_heap_descriptor_intlibspace.o(.text) for __rt_heap_descriptor
    h1_alloc.o(.text) refers to init_alloc.o(.text) for __Heap_Full
    h1_free.o(.text) refers to rt_heap_descriptor_intlibspace.o(.text) for __rt_heap_descriptor
    h1_alloc_mt.o(.text) refers (Special) to h1_init.o(.text) for __Heap_Initialize
    h1_alloc_mt.o(.text) refers to init_alloc.o(.text) for __Heap_Full
    h1_alloc_mt.o(.text) refers to rt_heap_descriptor_intlibspace.o(.text) for __rt_heap_descriptor
    h1_free_mt.o(.text) refers to rt_heap_descriptor_intlibspace.o(.text) for __rt_heap_descriptor
    heap2.o(i._FDIterate) refers to heap2.o(.conststring) for .conststring
    heap2.o(i.___Heap_ProvideMemory$realtime) refers to fdtree.o(i._FDTree_Delete) for _FDTree_Delete
    heap2.o(i.___Heap_ProvideMemory$realtime) refers to fdtree.o(i._FDTree_Insert) for _FDTree_Insert
    heap2.o(i.___Heap_Stats$realtime) refers to heap2.o(i._Heap2_StatsIterate) for _Heap2_StatsIterate
    heap2.o(i.___Heap_Valid$realtime) refers to heap2.o(i._FDIterate) for _FDIterate
    heap2.o(i.___Heap_Valid$realtime) refers to heap2.o(.conststring) for .conststring
    heap2.o(i._free$realtime) refers to rt_heap_descriptor_intlibspace.o(.text) for __rt_heap_descriptor
    heap2.o(i._free$realtime) refers to fdtree.o(i._FDTree_Delete) for _FDTree_Delete
    heap2.o(i._free$realtime) refers to fdtree.o(i._FDTree_Insert) for _FDTree_Insert
    heap2.o(i._malloc$realtime) refers to rt_heap_descriptor_intlibspace.o(.text) for __rt_heap_descriptor
    heap2.o(i._malloc$realtime) refers to fdtree.o(i._FDTree_FindFirst) for _FDTree_FindFirst
    heap2.o(i._malloc$realtime) refers to init_alloc.o(.text) for __Heap_Full
    heap2.o(i._malloc$realtime) refers to fdtree.o(i._FDTree_RemoveNode) for _FDTree_RemoveNode
    heap2.o(i._malloc$realtime) refers to fdtree.o(i._FDTree_Insert) for _FDTree_Insert
    heap2.o(i._posix_memalign$realtime) refers to rt_heap_descriptor_intlibspace.o(.text) for __rt_heap_descriptor
    heap2.o(i._posix_memalign$realtime) refers to fdtree.o(i._FDTree_FindFirst) for _FDTree_FindFirst
    heap2.o(i._posix_memalign$realtime) refers to init_alloc.o(.text) for __Heap_Full
    heap2.o(i._posix_memalign$realtime) refers to fdtree.o(i._FDTree_RemoveNode) for _FDTree_RemoveNode
    heap2.o(i._posix_memalign$realtime) refers to fdtree.o(i._FDTree_Insert) for _FDTree_Insert
    heap2.o(i._realloc$realtime) refers to rt_heap_descriptor_intlibspace.o(.text) for __rt_heap_descriptor
    heap2.o(i._realloc$realtime) refers to fdtree.o(i._FDTree_Insert) for _FDTree_Insert
    heap2.o(i._realloc$realtime) refers to h1_free.o(.text) for free
    heap2.o(i._realloc$realtime) refers to h1_alloc.o(.text) for malloc
    heap2.o(i._realloc$realtime) refers to fdtree.o(i._FDTree_Delete) for _FDTree_Delete
    heap2.o(i._realloc$realtime) refers to rt_memcpy_w.o(.text) for __aeabi_memcpy4
    heap2mt.o(i._FDIterate) refers to heap2mt.o(.conststring) for .conststring
    heap2mt.o(i.___Heap_Initialize$realtime$concurrent) refers to mutex_dummy.o(.text) for _mutex_initialize
    heap2mt.o(i.___Heap_ProvideMemory$realtime$concurrent) refers to fdtree.o(i._FDTree_Delete) for _FDTree_Delete
    heap2mt.o(i.___Heap_ProvideMemory$realtime$concurrent) refers to fdtree.o(i._FDTree_Insert) for _FDTree_Insert
    heap2mt.o(i.___Heap_Stats$realtime$concurrent) refers to heap2mt.o(i._Heap2_StatsIterate) for _Heap2_StatsIterate
    heap2mt.o(i.___Heap_Valid$realtime$concurrent) refers to heap2mt.o(i._FDIterate) for _FDIterate
    heap2mt.o(i.___Heap_Valid$realtime$concurrent) refers to heap2mt.o(.conststring) for .conststring
    heap2mt.o(i._free$realtime$concurrent) refers to rt_heap_descriptor_intlibspace.o(.text) for __rt_heap_descriptor
    heap2mt.o(i._free$realtime$concurrent) refers to fdtree.o(i._FDTree_Delete) for _FDTree_Delete
    heap2mt.o(i._free$realtime$concurrent) refers to fdtree.o(i._FDTree_Insert) for _FDTree_Insert
    heap2mt.o(i._malloc$realtime$concurrent) refers to rt_heap_descriptor_intlibspace.o(.text) for __rt_heap_descriptor
    heap2mt.o(i._malloc$realtime$concurrent) refers to fdtree.o(i._FDTree_FindFirst) for _FDTree_FindFirst
    heap2mt.o(i._malloc$realtime$concurrent) refers to init_alloc.o(.text) for __Heap_Full
    heap2mt.o(i._malloc$realtime$concurrent) refers to fdtree.o(i._FDTree_RemoveNode) for _FDTree_RemoveNode
    heap2mt.o(i._malloc$realtime$concurrent) refers to fdtree.o(i._FDTree_Insert) for _FDTree_Insert
    heap2mt.o(i._posix_memalign$realtime$concurrent) refers to rt_heap_descriptor_intlibspace.o(.text) for __rt_heap_descriptor
    heap2mt.o(i._posix_memalign$realtime$concurrent) refers to fdtree.o(i._FDTree_FindFirst) for _FDTree_FindFirst
    heap2mt.o(i._posix_memalign$realtime$concurrent) refers to init_alloc.o(.text) for __Heap_Full
    heap2mt.o(i._posix_memalign$realtime$concurrent) refers to fdtree.o(i._FDTree_RemoveNode) for _FDTree_RemoveNode
    heap2mt.o(i._posix_memalign$realtime$concurrent) refers to fdtree.o(i._FDTree_Insert) for _FDTree_Insert
    heap2mt.o(i._realloc$realtime$concurrent) refers to rt_heap_descriptor_intlibspace.o(.text) for __rt_heap_descriptor
    heap2mt.o(i._realloc$realtime$concurrent) refers to fdtree.o(i._FDTree_Insert) for _FDTree_Insert
    heap2mt.o(i._realloc$realtime$concurrent) refers to h1_free.o(.text) for free
    heap2mt.o(i._realloc$realtime$concurrent) refers to h1_alloc.o(.text) for malloc
    heap2mt.o(i._realloc$realtime$concurrent) refers to fdtree.o(i._FDTree_Delete) for _FDTree_Delete
    heap2mt.o(i._realloc$realtime$concurrent) refers to rt_memcpy_w.o(.text) for __aeabi_memcpy4
    atexit_aeabi.o(.text) refers to aeabi_atexit.o(.text) for __aeabi_atexit
    atexit_aeabi.o(.ARM.exidx) refers to atexit_aeabi.o(.text) for .text
    aeabi_atexit.o(.text) refers (Special) to cxa_finalize.o(.text) for __cxa_finalize
    aeabi_atexit.o(.text) refers to h1_alloc.o(.text) for malloc
    aeabi_atexit.o(.text) refers to rt_ddtor_pointer_addr_intlibspace.o(.text) for __rt_ddtor_pointer_addr
    aeabi_atexit.o(.ARM.exidx) refers (Special) to cxa_finalize.o(.text) for __cxa_finalize
    aeabi_atexit.o(.ARM.exidx) refers to aeabi_atexit.o(.text) for .text
    aeabi_memset.o(.text) refers to rt_memclr.o(.text) for _memset
    rt_memclr.o(.text) refers to rt_memclr_w.o(.text) for _memset_w
    strncpy.o(.text) refers to rt_memclr.o(.text) for __aeabi_memclr
    __main.o(!!!main) refers to __rtentry.o(.ARM.Collect$$rtentry$$00000000) for __rt_entry
    init_aeabi.o(.emb_text) refers (Special) to libinit2.o(.ARM.Collect$$libinit$$00000031) for __rt_lib_init_cpp_2
    init_aeabi.o(.init_array) refers (Special) to libinit2.o(.ARM.Collect$$libinit$$00000031) for __rt_lib_init_cpp_2
    init_aeabi.o(.init_array) refers to init_aeabi.o(.text) for __cpp_initialize__aeabi_
    init_aeabi.o(.dummy_text) refers (Special) to libinit2.o(.ARM.Collect$$libinit$$00000031) for __rt_lib_init_cpp_2
    init_aeabi.o(.text) refers (Special) to libinit2.o(.ARM.Collect$$libinit$$00000031) for __rt_lib_init_cpp_2
    init_aeabi.o(.ARM.exidx) refers (Special) to libinit2.o(.ARM.Collect$$libinit$$00000031) for __rt_lib_init_cpp_2
    init_aeabi.o(.ARM.exidx) refers to init_aeabi.o(.text) for .text
    new.o(i._Znwj) refers to rt_new_handler_addr_intlibspace.o(.text) for __rt_new_handler_addr
    new.o(i._Znwj) refers to h1_alloc.o(.text) for malloc
    new.o(i._Znwj) refers to arm_newhandler_noexceptions.o(.text) for __default_new_handler()
    new.o(.ARM.exidx) refers to new.o(i._Znwj) for i._Znwj
    new.o(.ARM.exidx) refers to unwind_pr0.o(.text) for __aeabi_unwind_cpp_pr0
    new.o(.ARM.exidx) refers to new.o(.ARM.extab) for .extab._Znwj
    new.o(.ARM.extab) refers to arm_callunex_noexceptions.o(.text) for __cxa_call_unexpected
    new.o(.ARM.extab) refers to bad_alloc_dtor.o(.constdata__ZTISt9bad_alloc) for typeinfo for std::bad_alloc
    pure_virt.o(i.__cxa_pure_virtual) refers to defsig_pvfn_outer.o(.text) for __rt_SIGPVFN
    pure_virt.o(.ARM.exidx) refers to pure_virt.o(i.__cxa_pure_virtual) for i.__cxa_pure_virtual
    lib_rtti_impl.o(i._ZN10__cxxabiv116__enum_type_infoD0Ev) refers to lib_rtti_impl.o(i._ZN10__cxxabiv116__enum_type_infoD1Ev) for __cxxabiv1::__enum_type_info::~__enum_type_info()
    lib_rtti_impl.o(i._ZN10__cxxabiv117__array_type_infoD0Ev) refers to lib_rtti_impl.o(i._ZN10__cxxabiv117__array_type_infoD1Ev) for __cxxabiv1::__array_type_info::~__array_type_info()
    lib_rtti_impl.o(i._ZN10__cxxabiv117__class_type_infoD0Ev) refers to lib_rtti_impl.o(i._ZN10__cxxabiv117__class_type_infoD1Ev) for __cxxabiv1::__class_type_info::~__class_type_info()
    lib_rtti_impl.o(i._ZN10__cxxabiv117__pbase_type_infoD0Ev) refers to lib_rtti_impl.o(i._ZN10__cxxabiv117__pbase_type_infoD1Ev) for __cxxabiv1::__pbase_type_info::~__pbase_type_info()
    lib_rtti_impl.o(i._ZN10__cxxabiv119__pointer_type_infoD0Ev) refers to lib_rtti_impl.o(i._ZN10__cxxabiv119__pointer_type_infoD1Ev) for __cxxabiv1::__pointer_type_info::~__pointer_type_info()
    lib_rtti_impl.o(i._ZN10__cxxabiv119__pointer_type_infoD1Ev) refers to lib_rtti_impl.o(i._ZN10__cxxabiv117__pbase_type_infoD1Ev) for __cxxabiv1::__pbase_type_info::~__pbase_type_info()
    lib_rtti_impl.o(i._ZN10__cxxabiv120__function_type_infoD0Ev) refers to lib_rtti_impl.o(i._ZN10__cxxabiv120__function_type_infoD1Ev) for __cxxabiv1::__function_type_info::~__function_type_info()
    lib_rtti_impl.o(i._ZN10__cxxabiv120__si_class_type_infoD0Ev) refers to lib_rtti_impl.o(i._ZN10__cxxabiv120__si_class_type_infoD1Ev) for __cxxabiv1::__si_class_type_info::~__si_class_type_info()
    lib_rtti_impl.o(i._ZN10__cxxabiv120__si_class_type_infoD1Ev) refers to lib_rtti_impl.o(i._ZN10__cxxabiv117__class_type_infoD1Ev) for __cxxabiv1::__class_type_info::~__class_type_info()
    lib_rtti_impl.o(i._ZN10__cxxabiv121__vmi_class_type_infoD0Ev) refers to lib_rtti_impl.o(i._ZN10__cxxabiv121__vmi_class_type_infoD1Ev) for __cxxabiv1::__vmi_class_type_info::~__vmi_class_type_info()
    lib_rtti_impl.o(i._ZN10__cxxabiv121__vmi_class_type_infoD1Ev) refers to lib_rtti_impl.o(i._ZN10__cxxabiv117__class_type_infoD1Ev) for __cxxabiv1::__class_type_info::~__class_type_info()
    lib_rtti_impl.o(i._ZN10__cxxabiv123__fundamental_type_infoD0Ev) refers to lib_rtti_impl.o(i._ZN10__cxxabiv123__fundamental_type_infoD1Ev) for __cxxabiv1::__fundamental_type_info::~__fundamental_type_info()
    lib_rtti_impl.o(i._ZN10__cxxabiv129__pointer_to_member_type_infoD0Ev) refers to lib_rtti_impl.o(i._ZN10__cxxabiv129__pointer_to_member_type_infoD1Ev) for __cxxabiv1::__pointer_to_member_type_info::~__pointer_to_member_type_info()
    lib_rtti_impl.o(i._ZN10__cxxabiv129__pointer_to_member_type_infoD1Ev) refers to lib_rtti_impl.o(i._ZN10__cxxabiv117__pbase_type_infoD1Ev) for __cxxabiv1::__pbase_type_info::~__pbase_type_info()
    lib_rtti_impl.o(.ARM.exidx) refers to lib_rtti_impl.o(i._ZN10__cxxabiv123__fundamental_type_infoD1Ev) for i._ZN10__cxxabiv123__fundamental_type_infoD1Ev
    lib_rtti_impl.o(.ARM.exidx) refers to lib_rtti_impl.o(i._ZN10__cxxabiv123__fundamental_type_infoD0Ev) for i._ZN10__cxxabiv123__fundamental_type_infoD0Ev
    lib_rtti_impl.o(.ARM.exidx) refers to lib_rtti_impl.o(i._ZN10__cxxabiv117__array_type_infoD1Ev) for i._ZN10__cxxabiv117__array_type_infoD1Ev
    lib_rtti_impl.o(.ARM.exidx) refers to lib_rtti_impl.o(i._ZN10__cxxabiv117__array_type_infoD0Ev) for i._ZN10__cxxabiv117__array_type_infoD0Ev
    lib_rtti_impl.o(.ARM.exidx) refers to lib_rtti_impl.o(i._ZN10__cxxabiv120__function_type_infoD1Ev) for i._ZN10__cxxabiv120__function_type_infoD1Ev
    lib_rtti_impl.o(.ARM.exidx) refers to lib_rtti_impl.o(i._ZN10__cxxabiv120__function_type_infoD0Ev) for i._ZN10__cxxabiv120__function_type_infoD0Ev
    lib_rtti_impl.o(.ARM.exidx) refers to lib_rtti_impl.o(i._ZN10__cxxabiv116__enum_type_infoD1Ev) for i._ZN10__cxxabiv116__enum_type_infoD1Ev
    lib_rtti_impl.o(.ARM.exidx) refers to lib_rtti_impl.o(i._ZN10__cxxabiv116__enum_type_infoD0Ev) for i._ZN10__cxxabiv116__enum_type_infoD0Ev
    lib_rtti_impl.o(.ARM.exidx) refers to lib_rtti_impl.o(i._ZN10__cxxabiv117__class_type_infoD1Ev) for i._ZN10__cxxabiv117__class_type_infoD1Ev
    lib_rtti_impl.o(.ARM.exidx) refers to lib_rtti_impl.o(i._ZN10__cxxabiv117__class_type_infoD0Ev) for i._ZN10__cxxabiv117__class_type_infoD0Ev
    lib_rtti_impl.o(.ARM.exidx) refers to lib_rtti_impl.o(i._ZN10__cxxabiv120__si_class_type_infoD1Ev) for i._ZN10__cxxabiv120__si_class_type_infoD1Ev
    lib_rtti_impl.o(.ARM.exidx) refers to lib_rtti_impl.o(i._ZN10__cxxabiv120__si_class_type_infoD0Ev) for i._ZN10__cxxabiv120__si_class_type_infoD0Ev
    lib_rtti_impl.o(.ARM.exidx) refers to lib_rtti_impl.o(i._ZN10__cxxabiv121__vmi_class_type_infoD1Ev) for i._ZN10__cxxabiv121__vmi_class_type_infoD1Ev
    lib_rtti_impl.o(.ARM.exidx) refers to lib_rtti_impl.o(i._ZN10__cxxabiv121__vmi_class_type_infoD0Ev) for i._ZN10__cxxabiv121__vmi_class_type_infoD0Ev
    lib_rtti_impl.o(.ARM.exidx) refers to lib_rtti_impl.o(i._ZN10__cxxabiv117__pbase_type_infoD1Ev) for i._ZN10__cxxabiv117__pbase_type_infoD1Ev
    lib_rtti_impl.o(.ARM.exidx) refers to lib_rtti_impl.o(i._ZN10__cxxabiv117__pbase_type_infoD0Ev) for i._ZN10__cxxabiv117__pbase_type_infoD0Ev
    lib_rtti_impl.o(.ARM.exidx) refers to lib_rtti_impl.o(i._ZN10__cxxabiv119__pointer_type_infoD1Ev) for i._ZN10__cxxabiv119__pointer_type_infoD1Ev
    lib_rtti_impl.o(.ARM.exidx) refers to lib_rtti_impl.o(i._ZN10__cxxabiv119__pointer_type_infoD0Ev) for i._ZN10__cxxabiv119__pointer_type_infoD0Ev
    lib_rtti_impl.o(.ARM.exidx) refers to lib_rtti_impl.o(i._ZN10__cxxabiv129__pointer_to_member_type_infoD1Ev) for i._ZN10__cxxabiv129__pointer_to_member_type_infoD1Ev
    lib_rtti_impl.o(.ARM.exidx) refers to lib_rtti_impl.o(i._ZN10__cxxabiv129__pointer_to_member_type_infoD0Ev) for i._ZN10__cxxabiv129__pointer_to_member_type_infoD0Ev
    __rtentry.o(.ARM.Collect$$rtentry$$00000000) refers (Special) to __rtentry2.o(.ARM.Collect$$rtentry$$0000000A) for __rt_entry_li
    __rtentry.o(.ARM.Collect$$rtentry$$00000000) refers (Special) to __rtentry2.o(.ARM.Collect$$rtentry$$0000000D) for __rt_entry_main
    __rtentry.o(.ARM.Collect$$rtentry$$00000000) refers (Special) to __rtentry2.o(.ARM.Collect$$rtentry$$0000000C) for __rt_entry_postli_1
    __rtentry.o(.ARM.Collect$$rtentry$$00000000) refers (Special) to __rtentry2.o(.ARM.Collect$$rtentry$$00000009) for __rt_entry_postsh_1
    __rtentry.o(.ARM.Collect$$rtentry$$00000000) refers (Special) to __rtentry2.o(.ARM.Collect$$rtentry$$00000002) for __rt_entry_presh_1
    __rtentry.o(.ARM.Collect$$rtentry$$00000000) refers (Special) to __rtentry4.o(.ARM.Collect$$rtentry$$00000004) for __rt_entry_sh
    rt_heap_descriptor.o(.text) refers to rt_heap_descriptor.o(.bss) for __rt_heap_descriptor_data
    rt_heap_descriptor_intlibspace.o(.text) refers to libspace.o(.bss) for __libspace_start
    rt_new_handler_addr.o(.text) refers to rt_new_handler_addr.o(.bss) for __rt_new_handler_addr_data
    rt_new_handler_addr_intlibspace.o(.text) refers to libspace.o(.bss) for __libspace_start
    rt_ddtor_pointer_addr.o(.text) refers to rt_ddtor_pointer_addr.o(.bss) for __rt_ddtor_pointer_addr_data
    rt_ddtor_pointer_addr_intlibspace.o(.text) refers to libspace.o(.bss) for __libspace_start
    init_alloc.o(.text) refers (Special) to hguard.o(.text) for __heap$guard
    init_alloc.o(.text) refers (Special) to libinit2.o(.ARM.Collect$$libinit$$00000005) for __rt_lib_init_heap_2
    init_alloc.o(.text) refers (Special) to maybetermalloc1.o(.emb_text) for _maybe_terminate_alloc
    init_alloc.o(.text) refers to h1_extend.o(.text) for __Heap_ProvideMemory
    init_alloc.o(.text) refers to defsig_rtmem_outer.o(.text) for __rt_SIGRTMEM
    init_alloc.o(.text) refers to rt_heap_descriptor_intlibspace.o(.text) for __rt_heap_descriptor
    init_alloc.o(.text) refers to h1_init.o(.text) for __Heap_Initialize
    h1_init_mt.o(.text) refers to mutex_dummy.o(.text) for _mutex_initialize
    cxa_finalize.o(.text) refers (Special) to libshutdown2.o(.ARM.Collect$$libshutdown$$00000001) for __rt_lib_shutdown_cpp_2
    cxa_finalize.o(.text) refers to rt_ddtor_pointer_addr_intlibspace.o(.text) for __rt_ddtor_pointer_addr
    cxa_finalize.o(.text) refers to h1_free.o(.text) for free
    cxa_finalize.o(.ARM.exidx) refers (Special) to libshutdown2.o(.ARM.Collect$$libshutdown$$00000001) for __rt_lib_shutdown_cpp_2
    cxa_finalize.o(.ARM.exidx) refers to cxa_finalize.o(.text) for .text
    defsig_pvfn_outer.o(.text) refers to defsig_pvfn_inner.o(.text) for __rt_SIGPVFN_inner
    defsig_pvfn_outer.o(.text) refers to defsig_exit.o(.text) for __sig_exit
    defsig_pvfn_formal.o(.text) refers to rt_raise.o(.text) for __rt_raise
    _get_argv.o(.text) refers (Special) to hrguard.o(.text) for __heap_region$guard
    _get_argv.o(.text) refers to h1_alloc.o(.text) for malloc
    _get_argv.o(.text) refers to defsig_rtmem_outer.o(.text) for __rt_SIGRTMEM
    _get_argv.o(.text) refers to sys_command.o(.text) for _sys_command_string
    libinit2.o(.ARM.Collect$$libinit$$00000001) refers to fpinit.o(x$fpl$fpinit) for _fp_init
    libinit2.o(.ARM.Collect$$libinit$$00000005) refers (Weak) to init_alloc.o(.text) for _init_alloc
    libinit2.o(.ARM.Collect$$libinit$$00000010) refers to libinit2.o(.ARM.Collect$$libinit$$0000000F) for .ARM.Collect$$libinit$$0000000F
    libinit2.o(.ARM.Collect$$libinit$$00000012) refers to libinit2.o(.ARM.Collect$$libinit$$0000000F) for .ARM.Collect$$libinit$$0000000F
    libinit2.o(.ARM.Collect$$libinit$$00000014) refers to libinit2.o(.ARM.Collect$$libinit$$0000000F) for .ARM.Collect$$libinit$$0000000F
    libinit2.o(.ARM.Collect$$libinit$$00000016) refers to libinit2.o(.ARM.Collect$$libinit$$0000000F) for .ARM.Collect$$libinit$$0000000F
    libinit2.o(.ARM.Collect$$libinit$$00000018) refers to libinit2.o(.ARM.Collect$$libinit$$0000000F) for .ARM.Collect$$libinit$$0000000F
    libinit2.o(.ARM.Collect$$libinit$$00000026) refers to argv_veneer.o(.emb_text) for __ARM_argv_veneer
    libinit2.o(.ARM.Collect$$libinit$$00000027) refers to argv_veneer.o(.emb_text) for __ARM_argv_veneer
    libinit2.o(.ARM.Collect$$libinit$$00000031) refers (Weak) to init_aeabi.o(.text) for __cpp_initialize__aeabi_
    arm_callunex_noexceptions.o(.ARM.exidx) refers to arm_callunex_noexceptions.o(.text) for .text
    arm_newhandler_noexceptions.o(.text) refers to arm_exceptions_terminate.o(.text) for std::terminate()
    arm_newhandler_noexceptions.o(.ARM.exidx) refers to arm_newhandler_noexceptions.o(.text) for .text
    bad_alloc_dtor.o(i._ZNSt9bad_allocD0Ev) refers to bad_alloc_dtor.o(i._ZNSt9bad_allocD1Ev) for std::bad_alloc::~bad_alloc()
    bad_alloc_dtor.o(i._ZNSt9bad_allocD0Ev) refers to delete.o(i._ZdlPv) for operator delete (void*)
    bad_alloc_dtor.o(.ARM.exidx) refers to bad_alloc_dtor.o(i._ZNSt9bad_allocD1Ev) for i._ZNSt9bad_allocD1Ev
    bad_alloc_dtor.o(.ARM.exidx) refers to bad_alloc_dtor.o(i._ZNSt9bad_allocD0Ev) for i._ZNSt9bad_allocD0Ev
    type_info_dtor.o(.ARM.exidx) refers to type_info_dtor.o(i._ZNSt9type_infoD1Ev) for i._ZNSt9type_infoD1Ev
    type_info_dtor.o(.ARM.exidx) refers to type_info_dtor.o(i._ZNSt9type_infoD0Ev) for i._ZNSt9type_infoD0Ev
    arm_exceptions_callterm.o(.text) refers to arm_exceptions_globs.o(.text) for __cxa_get_globals
    arm_exceptions_callterm.o(.text) refers to arm_exceptions_support.o(.text) for __ARM::is_foreign_exception(_Unwind_Control_Block*)
    arm_exceptions_callterm.o(.text) refers to arm_exceptions_terminate.o(.text) for std::terminate()
    arm_exceptions_callterm.o(.ARM.exidx) refers to arm_exceptions_callterm.o(.text) for .text
    unwind_pr0.o(.text) refers to unwind_prcommon.o(.text) for __ARM_unwind_cpp_prcommon
    unwind_pr0.o(.ARM.exidx) refers to unwind_pr0.o(.text) for .text
    sys_command.o(.text) refers (Special) to use_no_semi.o(.text) for __I$use$semihosting
    sys_command.o(.text) refers (Special) to indicate_semi.o(.text) for __semihosting_library_function
    libspace.o(.text) refers to libspace.o(.bss) for __libspace_start
    __rtentry2.o(.ARM.Collect$$rtentry$$00000008) refers to boardinit2.o(.text) for _platform_post_stackheap_init
    __rtentry2.o(.ARM.Collect$$rtentry$$0000000A) refers to libinit.o(.ARM.Collect$$libinit$$00000000) for __rt_lib_init
    __rtentry2.o(.ARM.Collect$$rtentry$$0000000B) refers to boardinit3.o(.text) for _platform_post_lib_init
    __rtentry2.o(.ARM.Collect$$rtentry$$0000000D) refers to epdtest.o(i.main) for main
    __rtentry2.o(.ARM.Collect$$rtentry$$0000000D) refers to exit.o(.text) for exit
    __rtentry2.o(.ARM.exidx) refers to __rtentry2.o(.ARM.Collect$$rtentry$$00000001) for .ARM.Collect$$rtentry$$00000001
    __rtentry2.o(.ARM.exidx) refers to __rtentry2.o(.ARM.Collect$$rtentry$$00000008) for .ARM.Collect$$rtentry$$00000008
    __rtentry2.o(.ARM.exidx) refers to __rtentry2.o(.ARM.Collect$$rtentry$$0000000A) for .ARM.Collect$$rtentry$$0000000A
    __rtentry2.o(.ARM.exidx) refers to __rtentry2.o(.ARM.Collect$$rtentry$$0000000B) for .ARM.Collect$$rtentry$$0000000B
    __rtentry2.o(.ARM.exidx) refers to __rtentry2.o(.ARM.Collect$$rtentry$$0000000D) for .ARM.Collect$$rtentry$$0000000D
    __rtentry4.o(.ARM.Collect$$rtentry$$00000004) refers to sys_stackheap_outer.o(.text) for __user_setup_stackheap
    __rtentry4.o(.ARM.exidx) refers to __rtentry4.o(.ARM.Collect$$rtentry$$00000004) for .ARM.Collect$$rtentry$$00000004
    rt_raise.o(.text) refers to __raise.o(.text) for __raise
    rt_raise.o(.text) refers to sys_exit.o(.text) for _sys_exit
    maybetermalloc2.o(.emb_text) refers (Special) to term_alloc.o(.text) for _terminate_alloc
    h1_extend.o(.text) refers to h1_free.o(.text) for free
    h1_extend_mt.o(.text) refers to h1_free_mt.o(.text) for _free_internal
    defsig_exit.o(.text) refers to sys_exit.o(.text) for _sys_exit
    defsig_rtmem_outer.o(.text) refers to defsig_rtmem_inner.o(.text) for __rt_SIGRTMEM_inner
    defsig_rtmem_outer.o(.text) refers to defsig_exit.o(.text) for __sig_exit
    defsig_rtmem_formal.o(.text) refers to rt_raise.o(.text) for __rt_raise
    defsig_pvfn_inner.o(.text) refers to defsig_general.o(.text) for __default_signal_display
    heapauxa.o(.text) refers to heapauxa.o(.data) for .data
    argv_veneer.o(.emb_text) refers to no_argv.o(.text) for __ARM_get_argv
    libshutdown2.o(.ARM.Collect$$libshutdown$$00000001) refers (Weak) to cxa_finalize.o(.text) for __cxa_finalize
    libshutdown2.o(.ARM.Collect$$libshutdown$$0000000D) refers (Weak) to term_alloc.o(.text) for _terminate_alloc
    delete.o(i._ZdlPv) refers to h1_free.o(.text) for free
    delete.o(.ARM.exidx) refers to delete.o(i._ZdlPv) for i._ZdlPv
    arm_begincatch_noexceptions.o(.ARM.exidx) refers to arm_begincatch_noexceptions.o(.text) for .text
    bad_alloc_what.o(.ARM.exidx) refers to bad_alloc_what.o(i._ZNKSt9bad_alloc4whatEv) for i._ZNKSt9bad_alloc4whatEv
    exception_dtor.o(i._ZNSt9exceptionD0Ev) refers to delete.o(i._ZdlPv) for operator delete (void*)
    exception_dtor.o(.ARM.exidx) refers to exception_dtor.o(i._ZNSt9exceptionD1Ev) for i._ZNSt9exceptionD1Ev
    exception_dtor.o(.ARM.exidx) refers to exception_dtor.o(i._ZNSt9exceptionD0Ev) for i._ZNSt9exceptionD0Ev
    arm_exceptions_terminate.o(.text) refers to arm_exceptions_globs.o(.text) for __cxa_get_globals
    arm_exceptions_terminate.o(.text) refers to abort.o(.text) for abort
    arm_exceptions_terminate.o(.ARM.exidx) refers to arm_exceptions_terminate.o(.text) for .text
    arm_exceptions_support.o(.text) refers to arm_exceptions_support.o(.constdata) for .constdata
    arm_exceptions_support.o(.ARM.exidx) refers to arm_exceptions_support.o(.text) for .text
    arm_exceptions_globs.o(.text) refers to abort.o(.text) for abort
    arm_exceptions_globs.o(.text) refers to rt_eh_globals_addr_intlibspace.o(.text) for __rt_eh_globals_addr
    arm_exceptions_globs.o(.text) refers to h1_alloc.o(.text) for malloc
    arm_exceptions_globs.o(.text) refers to arm_exceptions_mem.o(.text) for __ARM_exceptions_buffer_init
    arm_exceptions_globs.o(.ARM.exidx) refers to arm_exceptions_globs.o(.text) for .text
    unwind_prcommon.o(.text) refers to unwinder.o(.text) for _Unwind_VRS_Get
    unwind_prcommon.o(.text) refers to unwind_activity.o(.emb_text) for _Unwind_Activity
    unwind_prcommon.o(.text) refers (Weak) to arm_callunex_noexceptions.o(.text) for __cxa_call_unexpected
    unwind_prcommon.o(.ARM.exidx) refers to unwind_prcommon.o(.text) for .text
    sys_exit.o(.text) refers (Special) to use_no_semi.o(.text) for __I$use$semihosting
    sys_exit.o(.text) refers (Special) to indicate_semi.o(.text) for __semihosting_library_function
    sys_stackheap_outer.o(.text) refers to libspace.o(.text) for __user_perproc_libspace
    sys_stackheap_outer.o(.text) refers to arm_startup_nrf52840.o(.text) for __user_initial_stackheap
    rt_eh_globals_addr.o(.text) refers to rt_eh_globals_addr.o(.bss) for __rt_eh_globals_addr_data
    rt_eh_globals_addr_intlibspace.o(.text) refers to libspace.o(.bss) for __libspace_start
    term_alloc.o(.text) refers (Special) to libshutdown2.o(.ARM.Collect$$libshutdown$$0000000E) for __rt_lib_shutdown_heap_2
    term_alloc.o(.text) refers to rt_heap_descriptor_intlibspace.o(.text) for __rt_heap_descriptor
    term_alloc.o(.text) refers to h1_final.o(.text) for __Heap_Finalize
    exit.o(.text) refers to rtexit.o(.ARM.Collect$$rtexit$$00000000) for __rt_exit
    abort.o(.text) refers to defsig_abrt_outer.o(.text) for __rt_SIGABRT
    abort.o(.text) refers (Weak) to libshutdown.o(.ARM.Collect$$libshutdown$$00000000) for __rt_lib_shutdown
    abort.o(.text) refers to sys_exit.o(.text) for _sys_exit
    __raise.o(.text) refers to defsig.o(CL$$defsig) for __default_signal_handler
    defsig_general.o(.text) refers to sys_wrch.o(.text) for _ttywrch
    defsig_rtmem_inner.o(.text) refers to defsig_general.o(.text) for __default_signal_display
    _get_argv_nomalloc.o(.text) refers (Special) to hrguard.o(.text) for __heap_region$guard
    _get_argv_nomalloc.o(.text) refers to defsig_rtmem_outer.o(.text) for __rt_SIGRTMEM
    _get_argv_nomalloc.o(.text) refers to sys_command.o(.text) for _sys_command_string
    libinit.o(.ARM.Collect$$libinit$$00000000) refers (Special) to libinit2.o(.ARM.Collect$$libinit$$0000002E) for __rt_lib_init_alloca_1
    libinit.o(.ARM.Collect$$libinit$$00000000) refers (Special) to libinit2.o(.ARM.Collect$$libinit$$0000002C) for __rt_lib_init_argv_1
    libinit.o(.ARM.Collect$$libinit$$00000000) refers (Special) to libinit2.o(.ARM.Collect$$libinit$$0000001B) for __rt_lib_init_atexit_1
    libinit.o(.ARM.Collect$$libinit$$00000000) refers (Special) to libinit2.o(.ARM.Collect$$libinit$$00000021) for __rt_lib_init_clock_1
    libinit.o(.ARM.Collect$$libinit$$00000000) refers (Special) to libinit2.o(.ARM.Collect$$libinit$$00000032) for __rt_lib_init_cpp_1
    libinit.o(.ARM.Collect$$libinit$$00000000) refers (Special) to libinit2.o(.ARM.Collect$$libinit$$00000030) for __rt_lib_init_exceptions_1
    libinit.o(.ARM.Collect$$libinit$$00000000) refers (Special) to libinit2.o(.ARM.Collect$$libinit$$00000001) for __rt_lib_init_fp_1
    libinit.o(.ARM.Collect$$libinit$$00000000) refers (Special) to libinit2.o(.ARM.Collect$$libinit$$0000001F) for __rt_lib_init_fp_trap_1
    libinit.o(.ARM.Collect$$libinit$$00000000) refers (Special) to libinit2.o(.ARM.Collect$$libinit$$00000023) for __rt_lib_init_getenv_1
    libinit.o(.ARM.Collect$$libinit$$00000000) refers (Special) to libinit2.o(.ARM.Collect$$libinit$$0000000A) for __rt_lib_init_heap_1
    libinit.o(.ARM.Collect$$libinit$$00000000) refers (Special) to libinit2.o(.ARM.Collect$$libinit$$00000011) for __rt_lib_init_lc_collate_1
    libinit.o(.ARM.Collect$$libinit$$00000000) refers (Special) to libinit2.o(.ARM.Collect$$libinit$$00000013) for __rt_lib_init_lc_ctype_1
    libinit.o(.ARM.Collect$$libinit$$00000000) refers (Special) to libinit2.o(.ARM.Collect$$libinit$$00000015) for __rt_lib_init_lc_monetary_1
    libinit.o(.ARM.Collect$$libinit$$00000000) refers (Special) to libinit2.o(.ARM.Collect$$libinit$$00000017) for __rt_lib_init_lc_numeric_1
    libinit.o(.ARM.Collect$$libinit$$00000000) refers (Special) to libinit2.o(.ARM.Collect$$libinit$$00000019) for __rt_lib_init_lc_time_1
    libinit.o(.ARM.Collect$$libinit$$00000000) refers (Special) to libinit2.o(.ARM.Collect$$libinit$$00000004) for __rt_lib_init_preinit_1
    libinit.o(.ARM.Collect$$libinit$$00000000) refers (Special) to libinit2.o(.ARM.Collect$$libinit$$0000000E) for __rt_lib_init_rand_1
    libinit.o(.ARM.Collect$$libinit$$00000000) refers (Special) to libinit2.o(.ARM.Collect$$libinit$$00000033) for __rt_lib_init_return
    libinit.o(.ARM.Collect$$libinit$$00000000) refers (Special) to libinit2.o(.ARM.Collect$$libinit$$0000001D) for __rt_lib_init_signal_1
    libinit.o(.ARM.Collect$$libinit$$00000000) refers (Special) to libinit2.o(.ARM.Collect$$libinit$$00000025) for __rt_lib_init_stdio_1
    libinit.o(.ARM.Collect$$libinit$$00000000) refers (Special) to libinit2.o(.ARM.Collect$$libinit$$0000000C) for __rt_lib_init_user_alloc_1
    exception_what.o(.ARM.exidx) refers to exception_what.o(i._ZNKSt9exception4whatEv) for i._ZNKSt9exception4whatEv
    arm_exceptions_mem.o(.text) refers to h1_alloc.o(.text) for malloc
    arm_exceptions_mem.o(.ARM.exidx) refers to arm_exceptions_mem.o(.text) for .text
    unwinder.o(.emb_text) refers to unwinder.o(.text) for __ARM_Unwind_RaiseException
    unwinder.o(.text) refers to bsearchnoex.o(.text) for bsearch
    unwinder.o(.text) refers to unwind_activity.o(.emb_text) for _Unwind_Activity
    unwinder.o(.text) refers to abort.o(.text) for abort
    unwinder.o(.text) refers to unwinder.o(.emb_text) for __ARM_Unwind_VRS_corerestore
    unwinder.o(.text) refers to h1_alloc.o(.text) for malloc
    unwinder.o(.text) refers to rt_memcpy_w.o(.text) for __aeabi_memcpy4
    unwinder.o(.text) refers to h1_free.o(.text) for free
    unwinder.o(.text) refers (Weak) to unwind_pr0.o(.text) for __aeabi_unwind_cpp_pr0
    unwinder.o(.ARM.exidx) refers to unwinder.o(.text) for .text
    sys_wrch.o(.text) refers (Special) to use_no_semi.o(.text) for __I$use$semihosting
    sys_wrch.o(.text) refers (Special) to indicate_semi.o(.text) for __semihosting_library_function
    rtexit.o(.ARM.Collect$$rtexit$$00000000) refers (Special) to rtexit2.o(.ARM.Collect$$rtexit$$00000004) for __rt_exit_exit
    rtexit.o(.ARM.Collect$$rtexit$$00000000) refers (Special) to rtexit2.o(.ARM.Collect$$rtexit$$00000003) for __rt_exit_ls
    rtexit.o(.ARM.Collect$$rtexit$$00000000) refers (Special) to rtexit2.o(.ARM.Collect$$rtexit$$00000002) for __rt_exit_prels_1
    rtexit.o(.ARM.exidx) refers (Special) to rtexit2.o(.ARM.Collect$$rtexit$$00000004) for __rt_exit_exit
    rtexit.o(.ARM.exidx) refers (Special) to rtexit2.o(.ARM.Collect$$rtexit$$00000003) for __rt_exit_ls
    rtexit.o(.ARM.exidx) refers (Special) to rtexit2.o(.ARM.Collect$$rtexit$$00000002) for __rt_exit_prels_1
    rtexit.o(.ARM.exidx) refers to rtexit.o(.ARM.Collect$$rtexit$$00000000) for .ARM.Collect$$rtexit$$00000000
    defsig_abrt_outer.o(.text) refers to defsig_abrt_inner.o(.text) for __rt_SIGABRT_inner
    defsig_abrt_outer.o(.text) refers to defsig_exit.o(.text) for __sig_exit
    defsig_abrt_formal.o(.text) refers to rt_raise.o(.text) for __rt_raise
    defsig.o(CL$$defsig) refers to defsig_abrt_inner.o(.text) for __rt_SIGABRT_inner
    defsig.o(CL$$defsig) refers to defsig_rtmem_inner.o(.text) for __rt_SIGRTMEM_inner
    defsig.o(CL$$defsig) refers to defsig_pvfn_inner.o(.text) for __rt_SIGPVFN_inner
    rtexit2.o(.ARM.Collect$$rtexit$$00000003) refers to libshutdown.o(.ARM.Collect$$libshutdown$$00000000) for __rt_lib_shutdown
    rtexit2.o(.ARM.Collect$$rtexit$$00000004) refers to sys_exit.o(.text) for _sys_exit
    rtexit2.o(.ARM.exidx) refers to rtexit2.o(.ARM.Collect$$rtexit$$00000001) for .ARM.Collect$$rtexit$$00000001
    rtexit2.o(.ARM.exidx) refers to rtexit2.o(.ARM.Collect$$rtexit$$00000003) for .ARM.Collect$$rtexit$$00000003
    rtexit2.o(.ARM.exidx) refers to rtexit2.o(.ARM.Collect$$rtexit$$00000004) for .ARM.Collect$$rtexit$$00000004
    defsig_abrt_inner.o(.text) refers to defsig_general.o(.text) for __default_signal_display
    defsig_fpe_inner.o(.text) refers to defsig_general.o(.text) for __default_signal_display
    defsig_rtred_inner.o(.text) refers to defsig_general.o(.text) for __default_signal_display
    defsig_stak_inner.o(.text) refers to defsig_general.o(.text) for __default_signal_display
    defsig_cppl_inner.o(.text) refers to defsig_general.o(.text) for __default_signal_display
    defsig_segv_inner.o(.text) refers to defsig_general.o(.text) for __default_signal_display
    defsig_other.o(.text) refers to defsig_general.o(.text) for __default_signal_display
    libshutdown.o(.ARM.Collect$$libshutdown$$00000000) refers (Special) to libshutdown2.o(.ARM.Collect$$libshutdown$$00000002) for __rt_lib_shutdown_cpp_1
    libshutdown.o(.ARM.Collect$$libshutdown$$00000000) refers (Special) to libshutdown2.o(.ARM.Collect$$libshutdown$$00000007) for __rt_lib_shutdown_fp_trap_1
    libshutdown.o(.ARM.Collect$$libshutdown$$00000000) refers (Special) to libshutdown2.o(.ARM.Collect$$libshutdown$$0000000F) for __rt_lib_shutdown_heap_1
    libshutdown.o(.ARM.Collect$$libshutdown$$00000000) refers (Special) to libshutdown2.o(.ARM.Collect$$libshutdown$$00000010) for __rt_lib_shutdown_return
    libshutdown.o(.ARM.Collect$$libshutdown$$00000000) refers (Special) to libshutdown2.o(.ARM.Collect$$libshutdown$$0000000A) for __rt_lib_shutdown_signal_1
    libshutdown.o(.ARM.Collect$$libshutdown$$00000000) refers (Special) to libshutdown2.o(.ARM.Collect$$libshutdown$$00000004) for __rt_lib_shutdown_stdio_1
    libshutdown.o(.ARM.Collect$$libshutdown$$00000000) refers (Special) to libshutdown2.o(.ARM.Collect$$libshutdown$$0000000C) for __rt_lib_shutdown_user_alloc_1
    epdtest.o(i._ZN15Adafruit_IL0373D1Ev) refers to adafruit_epd.o(i._ZN12Adafruit_EPDD2Ev) for Adafruit_EPD::~Adafruit_EPD__sub_object()
    epdtest.o(.ARM.exidx) refers to epdtest.o(i._ZN15Adafruit_IL0373D1Ev) for i._ZN15Adafruit_IL0373D1Ev
    adafruit_epd.o(.constdata__ZTV12Adafruit_EPD) refers to adafruit_epd.o(.constdata__ZTI12Adafruit_EPD) for typeinfo for Adafruit_EPD
    adafruit_epd.o(.constdata__ZTV12Adafruit_EPD) refers to adafruit_epd.o(i._ZN12Adafruit_EPD9drawPixelEsst) for Adafruit_EPD::drawPixel(short, short, unsigned short)
    adafruit_epd.o(.constdata__ZTV12Adafruit_EPD) refers to adafruit_gfx.o(i._ZN12Adafruit_GFX10startWriteEv) for Adafruit_GFX::startWrite()
    adafruit_epd.o(.constdata__ZTV12Adafruit_EPD) refers to adafruit_gfx.o(i._ZN12Adafruit_GFX10writePixelEsst) for Adafruit_GFX::writePixel(short, short, unsigned short)
    adafruit_epd.o(.constdata__ZTV12Adafruit_EPD) refers to adafruit_gfx.o(i._ZN12Adafruit_GFX13writeFillRectEsssst) for Adafruit_GFX::writeFillRect(short, short, short, short, unsigned short)
    adafruit_epd.o(.constdata__ZTV12Adafruit_EPD) refers to adafruit_gfx.o(i._ZN12Adafruit_GFX14writeFastVLineEssst) for Adafruit_GFX::writeFastVLine(short, short, short, unsigned short)
    adafruit_epd.o(.constdata__ZTV12Adafruit_EPD) refers to adafruit_gfx.o(i._ZN12Adafruit_GFX14writeFastHLineEssst) for Adafruit_GFX::writeFastHLine(short, short, short, unsigned short)
    adafruit_epd.o(.constdata__ZTV12Adafruit_EPD) refers to adafruit_gfx.o(i._ZN12Adafruit_GFX9writeLineEsssst) for Adafruit_GFX::writeLine(short, short, short, short, unsigned short)
    adafruit_epd.o(.constdata__ZTV12Adafruit_EPD) refers to adafruit_gfx.o(i._ZN12Adafruit_GFX8endWriteEv) for Adafruit_GFX::endWrite()
    adafruit_epd.o(.constdata__ZTV12Adafruit_EPD) refers to adafruit_gfx.o(i._ZN12Adafruit_GFX11setRotationEh) for Adafruit_GFX::setRotation(unsigned char)
    adafruit_epd.o(.constdata__ZTV12Adafruit_EPD) refers to adafruit_gfx.o(i._ZN12Adafruit_GFX13invertDisplayEb) for Adafruit_GFX::invertDisplay(bool)
    adafruit_epd.o(.constdata__ZTV12Adafruit_EPD) refers to adafruit_gfx.o(i._ZN12Adafruit_GFX13drawFastVLineEssst) for Adafruit_GFX::drawFastVLine(short, short, short, unsigned short)
    adafruit_epd.o(.constdata__ZTV12Adafruit_EPD) refers to adafruit_gfx.o(i._ZN12Adafruit_GFX13drawFastHLineEssst) for Adafruit_GFX::drawFastHLine(short, short, short, unsigned short)
    adafruit_epd.o(.constdata__ZTV12Adafruit_EPD) refers to adafruit_gfx.o(i._ZN12Adafruit_GFX8fillRectEsssst) for Adafruit_GFX::fillRect(short, short, short, short, unsigned short)
    adafruit_epd.o(.constdata__ZTV12Adafruit_EPD) refers to adafruit_gfx.o(i._ZN12Adafruit_GFX10fillScreenEt) for Adafruit_GFX::fillScreen(unsigned short)
    adafruit_epd.o(.constdata__ZTV12Adafruit_EPD) refers to adafruit_gfx.o(i._ZN12Adafruit_GFX8drawLineEsssst) for Adafruit_GFX::drawLine(short, short, short, short, unsigned short)
    adafruit_epd.o(.constdata__ZTV12Adafruit_EPD) refers to adafruit_gfx.o(i._ZN12Adafruit_GFX8drawRectEsssst) for Adafruit_GFX::drawRect(short, short, short, short, unsigned short)
    adafruit_epd.o(.constdata__ZTV12Adafruit_EPD) refers to adafruit_gfx.o(i._ZN12Adafruit_GFX5writeEh) for Adafruit_GFX::write(unsigned char)
    adafruit_epd.o(.constdata__ZTV12Adafruit_EPD) refers to pure_virt.o(i.__cxa_pure_virtual) for __cxa_pure_virtual
    adafruit_epd.o(.constdata__ZTI12Adafruit_EPD) refers to lib_rtti_impl.o(.constdata__ZTVN10__cxxabiv120__si_class_type_infoE) for vtable for __cxxabiv1::__si_class_type_info
    adafruit_epd.o(.constdata__ZTI12Adafruit_EPD) refers to adafruit_epd.o(.constdata__ZTS12Adafruit_EPD) for typeinfo name for Adafruit_EPD
    adafruit_epd.o(.constdata__ZTI12Adafruit_EPD) refers to adafruit_gfx.o(.constdata__ZTI12Adafruit_GFX) for typeinfo for Adafruit_GFX
    adafruit_gfx.o(.constdata__ZTV12Adafruit_GFX) refers to adafruit_gfx.o(.constdata__ZTI12Adafruit_GFX) for typeinfo for Adafruit_GFX
    adafruit_gfx.o(.constdata__ZTV12Adafruit_GFX) refers to pure_virt.o(i.__cxa_pure_virtual) for __cxa_pure_virtual
    adafruit_gfx.o(.constdata__ZTV12Adafruit_GFX) refers to adafruit_gfx.o(i._ZN12Adafruit_GFX10startWriteEv) for Adafruit_GFX::startWrite()
    adafruit_gfx.o(.constdata__ZTV12Adafruit_GFX) refers to adafruit_gfx.o(i._ZN12Adafruit_GFX10writePixelEsst) for Adafruit_GFX::writePixel(short, short, unsigned short)
    adafruit_gfx.o(.constdata__ZTV12Adafruit_GFX) refers to adafruit_gfx.o(i._ZN12Adafruit_GFX13writeFillRectEsssst) for Adafruit_GFX::writeFillRect(short, short, short, short, unsigned short)
    adafruit_gfx.o(.constdata__ZTV12Adafruit_GFX) refers to adafruit_gfx.o(i._ZN12Adafruit_GFX14writeFastVLineEssst) for Adafruit_GFX::writeFastVLine(short, short, short, unsigned short)
    adafruit_gfx.o(.constdata__ZTV12Adafruit_GFX) refers to adafruit_gfx.o(i._ZN12Adafruit_GFX14writeFastHLineEssst) for Adafruit_GFX::writeFastHLine(short, short, short, unsigned short)
    adafruit_gfx.o(.constdata__ZTV12Adafruit_GFX) refers to adafruit_gfx.o(i._ZN12Adafruit_GFX9writeLineEsssst) for Adafruit_GFX::writeLine(short, short, short, short, unsigned short)
    adafruit_gfx.o(.constdata__ZTV12Adafruit_GFX) refers to adafruit_gfx.o(i._ZN12Adafruit_GFX8endWriteEv) for Adafruit_GFX::endWrite()
    adafruit_gfx.o(.constdata__ZTV12Adafruit_GFX) refers to adafruit_gfx.o(i._ZN12Adafruit_GFX11setRotationEh) for Adafruit_GFX::setRotation(unsigned char)
    adafruit_gfx.o(.constdata__ZTV12Adafruit_GFX) refers to adafruit_gfx.o(i._ZN12Adafruit_GFX13invertDisplayEb) for Adafruit_GFX::invertDisplay(bool)
    adafruit_gfx.o(.constdata__ZTV12Adafruit_GFX) refers to adafruit_gfx.o(i._ZN12Adafruit_GFX13drawFastVLineEssst) for Adafruit_GFX::drawFastVLine(short, short, short, unsigned short)
    adafruit_gfx.o(.constdata__ZTV12Adafruit_GFX) refers to adafruit_gfx.o(i._ZN12Adafruit_GFX13drawFastHLineEssst) for Adafruit_GFX::drawFastHLine(short, short, short, unsigned short)
    adafruit_gfx.o(.constdata__ZTV12Adafruit_GFX) refers to adafruit_gfx.o(i._ZN12Adafruit_GFX8fillRectEsssst) for Adafruit_GFX::fillRect(short, short, short, short, unsigned short)
    adafruit_gfx.o(.constdata__ZTV12Adafruit_GFX) refers to adafruit_gfx.o(i._ZN12Adafruit_GFX10fillScreenEt) for Adafruit_GFX::fillScreen(unsigned short)
    adafruit_gfx.o(.constdata__ZTV12Adafruit_GFX) refers to adafruit_gfx.o(i._ZN12Adafruit_GFX8drawLineEsssst) for Adafruit_GFX::drawLine(short, short, short, short, unsigned short)
    adafruit_gfx.o(.constdata__ZTV12Adafruit_GFX) refers to adafruit_gfx.o(i._ZN12Adafruit_GFX8drawRectEsssst) for Adafruit_GFX::drawRect(short, short, short, short, unsigned short)
    adafruit_gfx.o(.constdata__ZTV12Adafruit_GFX) refers to adafruit_gfx.o(i._ZN12Adafruit_GFX5writeEh) for Adafruit_GFX::write(unsigned char)
    adafruit_gfx.o(.constdata__ZTV10GFXcanvas1) refers to adafruit_gfx.o(.constdata__ZTI10GFXcanvas1) for typeinfo for GFXcanvas1
    adafruit_gfx.o(.constdata__ZTV10GFXcanvas1) refers to adafruit_gfx.o(i._ZN10GFXcanvas19drawPixelEsst) for GFXcanvas1::drawPixel(short, short, unsigned short)
    adafruit_gfx.o(.constdata__ZTV10GFXcanvas1) refers to adafruit_gfx.o(i._ZN12Adafruit_GFX10startWriteEv) for Adafruit_GFX::startWrite()
    adafruit_gfx.o(.constdata__ZTV10GFXcanvas1) refers to adafruit_gfx.o(i._ZN12Adafruit_GFX10writePixelEsst) for Adafruit_GFX::writePixel(short, short, unsigned short)
    adafruit_gfx.o(.constdata__ZTV10GFXcanvas1) refers to adafruit_gfx.o(i._ZN12Adafruit_GFX13writeFillRectEsssst) for Adafruit_GFX::writeFillRect(short, short, short, short, unsigned short)
    adafruit_gfx.o(.constdata__ZTV10GFXcanvas1) refers to adafruit_gfx.o(i._ZN12Adafruit_GFX14writeFastVLineEssst) for Adafruit_GFX::writeFastVLine(short, short, short, unsigned short)
    adafruit_gfx.o(.constdata__ZTV10GFXcanvas1) refers to adafruit_gfx.o(i._ZN12Adafruit_GFX14writeFastHLineEssst) for Adafruit_GFX::writeFastHLine(short, short, short, unsigned short)
    adafruit_gfx.o(.constdata__ZTV10GFXcanvas1) refers to adafruit_gfx.o(i._ZN12Adafruit_GFX9writeLineEsssst) for Adafruit_GFX::writeLine(short, short, short, short, unsigned short)
    adafruit_gfx.o(.constdata__ZTV10GFXcanvas1) refers to adafruit_gfx.o(i._ZN12Adafruit_GFX8endWriteEv) for Adafruit_GFX::endWrite()
    adafruit_gfx.o(.constdata__ZTV10GFXcanvas1) refers to adafruit_gfx.o(i._ZN12Adafruit_GFX11setRotationEh) for Adafruit_GFX::setRotation(unsigned char)
    adafruit_gfx.o(.constdata__ZTV10GFXcanvas1) refers to adafruit_gfx.o(i._ZN12Adafruit_GFX13invertDisplayEb) for Adafruit_GFX::invertDisplay(bool)
    adafruit_gfx.o(.constdata__ZTV10GFXcanvas1) refers to adafruit_gfx.o(i._ZN10GFXcanvas113drawFastVLineEssst) for GFXcanvas1::drawFastVLine(short, short, short, unsigned short)
    adafruit_gfx.o(.constdata__ZTV10GFXcanvas1) refers to adafruit_gfx.o(i._ZN10GFXcanvas113drawFastHLineEssst) for GFXcanvas1::drawFastHLine(short, short, short, unsigned short)
    adafruit_gfx.o(.constdata__ZTV10GFXcanvas1) refers to adafruit_gfx.o(i._ZN12Adafruit_GFX8fillRectEsssst) for Adafruit_GFX::fillRect(short, short, short, short, unsigned short)
    adafruit_gfx.o(.constdata__ZTV10GFXcanvas1) refers to adafruit_gfx.o(i._ZN10GFXcanvas110fillScreenEt) for GFXcanvas1::fillScreen(unsigned short)
    adafruit_gfx.o(.constdata__ZTV10GFXcanvas1) refers to adafruit_gfx.o(i._ZN12Adafruit_GFX8drawLineEsssst) for Adafruit_GFX::drawLine(short, short, short, short, unsigned short)
    adafruit_gfx.o(.constdata__ZTV10GFXcanvas1) refers to adafruit_gfx.o(i._ZN12Adafruit_GFX8drawRectEsssst) for Adafruit_GFX::drawRect(short, short, short, short, unsigned short)
    adafruit_gfx.o(.constdata__ZTV10GFXcanvas1) refers to adafruit_gfx.o(i._ZN12Adafruit_GFX5writeEh) for Adafruit_GFX::write(unsigned char)
    adafruit_gfx.o(.constdata__ZTV10GFXcanvas8) refers to adafruit_gfx.o(.constdata__ZTI10GFXcanvas8) for typeinfo for GFXcanvas8
    adafruit_gfx.o(.constdata__ZTV10GFXcanvas8) refers to adafruit_gfx.o(i._ZN10GFXcanvas89drawPixelEsst) for GFXcanvas8::drawPixel(short, short, unsigned short)
    adafruit_gfx.o(.constdata__ZTV10GFXcanvas8) refers to adafruit_gfx.o(i._ZN12Adafruit_GFX10startWriteEv) for Adafruit_GFX::startWrite()
    adafruit_gfx.o(.constdata__ZTV10GFXcanvas8) refers to adafruit_gfx.o(i._ZN12Adafruit_GFX10writePixelEsst) for Adafruit_GFX::writePixel(short, short, unsigned short)
    adafruit_gfx.o(.constdata__ZTV10GFXcanvas8) refers to adafruit_gfx.o(i._ZN12Adafruit_GFX13writeFillRectEsssst) for Adafruit_GFX::writeFillRect(short, short, short, short, unsigned short)
    adafruit_gfx.o(.constdata__ZTV10GFXcanvas8) refers to adafruit_gfx.o(i._ZN12Adafruit_GFX14writeFastVLineEssst) for Adafruit_GFX::writeFastVLine(short, short, short, unsigned short)
    adafruit_gfx.o(.constdata__ZTV10GFXcanvas8) refers to adafruit_gfx.o(i._ZN12Adafruit_GFX14writeFastHLineEssst) for Adafruit_GFX::writeFastHLine(short, short, short, unsigned short)
    adafruit_gfx.o(.constdata__ZTV10GFXcanvas8) refers to adafruit_gfx.o(i._ZN12Adafruit_GFX9writeLineEsssst) for Adafruit_GFX::writeLine(short, short, short, short, unsigned short)
    adafruit_gfx.o(.constdata__ZTV10GFXcanvas8) refers to adafruit_gfx.o(i._ZN12Adafruit_GFX8endWriteEv) for Adafruit_GFX::endWrite()
    adafruit_gfx.o(.constdata__ZTV10GFXcanvas8) refers to adafruit_gfx.o(i._ZN12Adafruit_GFX11setRotationEh) for Adafruit_GFX::setRotation(unsigned char)
    adafruit_gfx.o(.constdata__ZTV10GFXcanvas8) refers to adafruit_gfx.o(i._ZN12Adafruit_GFX13invertDisplayEb) for Adafruit_GFX::invertDisplay(bool)
    adafruit_gfx.o(.constdata__ZTV10GFXcanvas8) refers to adafruit_gfx.o(i._ZN10GFXcanvas813drawFastVLineEssst) for GFXcanvas8::drawFastVLine(short, short, short, unsigned short)
    adafruit_gfx.o(.constdata__ZTV10GFXcanvas8) refers to adafruit_gfx.o(i._ZN10GFXcanvas813drawFastHLineEssst) for GFXcanvas8::drawFastHLine(short, short, short, unsigned short)
    adafruit_gfx.o(.constdata__ZTV10GFXcanvas8) refers to adafruit_gfx.o(i._ZN12Adafruit_GFX8fillRectEsssst) for Adafruit_GFX::fillRect(short, short, short, short, unsigned short)
    adafruit_gfx.o(.constdata__ZTV10GFXcanvas8) refers to adafruit_gfx.o(i._ZN10GFXcanvas810fillScreenEt) for GFXcanvas8::fillScreen(unsigned short)
    adafruit_gfx.o(.constdata__ZTV10GFXcanvas8) refers to adafruit_gfx.o(i._ZN12Adafruit_GFX8drawLineEsssst) for Adafruit_GFX::drawLine(short, short, short, short, unsigned short)
    adafruit_gfx.o(.constdata__ZTV10GFXcanvas8) refers to adafruit_gfx.o(i._ZN12Adafruit_GFX8drawRectEsssst) for Adafruit_GFX::drawRect(short, short, short, short, unsigned short)
    adafruit_gfx.o(.constdata__ZTV10GFXcanvas8) refers to adafruit_gfx.o(i._ZN12Adafruit_GFX5writeEh) for Adafruit_GFX::write(unsigned char)
    adafruit_gfx.o(.constdata__ZTV11GFXcanvas16) refers to adafruit_gfx.o(.constdata__ZTI11GFXcanvas16) for typeinfo for GFXcanvas16
    adafruit_gfx.o(.constdata__ZTV11GFXcanvas16) refers to adafruit_gfx.o(i._ZN11GFXcanvas169drawPixelEsst) for GFXcanvas16::drawPixel(short, short, unsigned short)
    adafruit_gfx.o(.constdata__ZTV11GFXcanvas16) refers to adafruit_gfx.o(i._ZN12Adafruit_GFX10startWriteEv) for Adafruit_GFX::startWrite()
    adafruit_gfx.o(.constdata__ZTV11GFXcanvas16) refers to adafruit_gfx.o(i._ZN12Adafruit_GFX10writePixelEsst) for Adafruit_GFX::writePixel(short, short, unsigned short)
    adafruit_gfx.o(.constdata__ZTV11GFXcanvas16) refers to adafruit_gfx.o(i._ZN12Adafruit_GFX13writeFillRectEsssst) for Adafruit_GFX::writeFillRect(short, short, short, short, unsigned short)
    adafruit_gfx.o(.constdata__ZTV11GFXcanvas16) refers to adafruit_gfx.o(i._ZN12Adafruit_GFX14writeFastVLineEssst) for Adafruit_GFX::writeFastVLine(short, short, short, unsigned short)
    adafruit_gfx.o(.constdata__ZTV11GFXcanvas16) refers to adafruit_gfx.o(i._ZN12Adafruit_GFX14writeFastHLineEssst) for Adafruit_GFX::writeFastHLine(short, short, short, unsigned short)
    adafruit_gfx.o(.constdata__ZTV11GFXcanvas16) refers to adafruit_gfx.o(i._ZN12Adafruit_GFX9writeLineEsssst) for Adafruit_GFX::writeLine(short, short, short, short, unsigned short)
    adafruit_gfx.o(.constdata__ZTV11GFXcanvas16) refers to adafruit_gfx.o(i._ZN12Adafruit_GFX8endWriteEv) for Adafruit_GFX::endWrite()
    adafruit_gfx.o(.constdata__ZTV11GFXcanvas16) refers to adafruit_gfx.o(i._ZN12Adafruit_GFX11setRotationEh) for Adafruit_GFX::setRotation(unsigned char)
    adafruit_gfx.o(.constdata__ZTV11GFXcanvas16) refers to adafruit_gfx.o(i._ZN12Adafruit_GFX13invertDisplayEb) for Adafruit_GFX::invertDisplay(bool)
    adafruit_gfx.o(.constdata__ZTV11GFXcanvas16) refers to adafruit_gfx.o(i._ZN11GFXcanvas1613drawFastVLineEssst) for GFXcanvas16::drawFastVLine(short, short, short, unsigned short)
    adafruit_gfx.o(.constdata__ZTV11GFXcanvas16) refers to adafruit_gfx.o(i._ZN11GFXcanvas1613drawFastHLineEssst) for GFXcanvas16::drawFastHLine(short, short, short, unsigned short)
    adafruit_gfx.o(.constdata__ZTV11GFXcanvas16) refers to adafruit_gfx.o(i._ZN12Adafruit_GFX8fillRectEsssst) for Adafruit_GFX::fillRect(short, short, short, short, unsigned short)
    adafruit_gfx.o(.constdata__ZTV11GFXcanvas16) refers to adafruit_gfx.o(i._ZN11GFXcanvas1610fillScreenEt) for GFXcanvas16::fillScreen(unsigned short)
    adafruit_gfx.o(.constdata__ZTV11GFXcanvas16) refers to adafruit_gfx.o(i._ZN12Adafruit_GFX8drawLineEsssst) for Adafruit_GFX::drawLine(short, short, short, short, unsigned short)
    adafruit_gfx.o(.constdata__ZTV11GFXcanvas16) refers to adafruit_gfx.o(i._ZN12Adafruit_GFX8drawRectEsssst) for Adafruit_GFX::drawRect(short, short, short, short, unsigned short)
    adafruit_gfx.o(.constdata__ZTV11GFXcanvas16) refers to adafruit_gfx.o(i._ZN12Adafruit_GFX5writeEh) for Adafruit_GFX::write(unsigned char)
    adafruit_gfx.o(.ARM.exidx) refers to adafruit_gfx.o(i._Z18pgm_read_glyph_ptrPK7GFXfonth) for i._Z18pgm_read_glyph_ptrPK7GFXfonth
    adafruit_gfx.o(.ARM.exidx) refers to adafruit_gfx.o(i._ZNK12Adafruit_GFX5widthEv) for i._ZNK12Adafruit_GFX5widthEv
    adafruit_gfx.o(.ARM.exidx) refers to adafruit_gfx.o(i._ZNK12Adafruit_GFX6heightEv) for i._ZNK12Adafruit_GFX6heightEv
    adafruit_gfx.o(.ARM.exidx) refers to adafruit_gfx.o(i._ZNK12Adafruit_GFX11getRotationEv) for i._ZNK12Adafruit_GFX11getRotationEv
    adafruit_gfx.o(.ARM.exidx) refers to adafruit_gfx.o(i._ZNK10GFXcanvas19getBufferEv) for i._ZNK10GFXcanvas19getBufferEv
    adafruit_gfx.o(.constdata__ZTI12Adafruit_GFX) refers to lib_rtti_impl.o(.constdata__ZTVN10__cxxabiv120__si_class_type_infoE) for vtable for __cxxabiv1::__si_class_type_info
    adafruit_gfx.o(.constdata__ZTI12Adafruit_GFX) refers to adafruit_gfx.o(.constdata__ZTS12Adafruit_GFX) for typeinfo name for Adafruit_GFX
    adafruit_gfx.o(.constdata__ZTI12Adafruit_GFX) refers to adafruit_gfx.o(.constdata__ZTI5Print) for typeinfo for Print
    adafruit_gfx.o(.constdata__ZTI10GFXcanvas1) refers to lib_rtti_impl.o(.constdata__ZTVN10__cxxabiv120__si_class_type_infoE) for vtable for __cxxabiv1::__si_class_type_info
    adafruit_gfx.o(.constdata__ZTI10GFXcanvas1) refers to adafruit_gfx.o(.constdata__ZTS10GFXcanvas1) for typeinfo name for GFXcanvas1
    adafruit_gfx.o(.constdata__ZTI10GFXcanvas1) refers to adafruit_gfx.o(.constdata__ZTI12Adafruit_GFX) for typeinfo for Adafruit_GFX
    adafruit_gfx.o(.constdata__ZTI10GFXcanvas8) refers to lib_rtti_impl.o(.constdata__ZTVN10__cxxabiv120__si_class_type_infoE) for vtable for __cxxabiv1::__si_class_type_info
    adafruit_gfx.o(.constdata__ZTI10GFXcanvas8) refers to adafruit_gfx.o(.constdata__ZTS10GFXcanvas8) for typeinfo name for GFXcanvas8
    adafruit_gfx.o(.constdata__ZTI10GFXcanvas8) refers to adafruit_gfx.o(.constdata__ZTI12Adafruit_GFX) for typeinfo for Adafruit_GFX
    adafruit_gfx.o(.constdata__ZTI11GFXcanvas16) refers to lib_rtti_impl.o(.constdata__ZTVN10__cxxabiv120__si_class_type_infoE) for vtable for __cxxabiv1::__si_class_type_info
    adafruit_gfx.o(.constdata__ZTI11GFXcanvas16) refers to adafruit_gfx.o(.constdata__ZTS11GFXcanvas16) for typeinfo name for GFXcanvas16
    adafruit_gfx.o(.constdata__ZTI11GFXcanvas16) refers to adafruit_gfx.o(.constdata__ZTI12Adafruit_GFX) for typeinfo for Adafruit_GFX
    adafruit_gfx.o(.constdata__ZTI5Print) refers to lib_rtti_impl.o(.constdata__ZTVN10__cxxabiv117__class_type_infoE) for vtable for __cxxabiv1::__class_type_info
    adafruit_gfx.o(.constdata__ZTI5Print) refers to adafruit_gfx.o(.constdata__ZTS5Print) for typeinfo name for Print
    adafruit_spitft.o(.constdata__ZTV15Adafruit_SPITFT) refers to adafruit_spitft.o(.constdata__ZTI15Adafruit_SPITFT) for typeinfo for Adafruit_SPITFT
    adafruit_spitft.o(.constdata__ZTV15Adafruit_SPITFT) refers to adafruit_spitft.o(i._ZN15Adafruit_SPITFT9drawPixelEsst) for Adafruit_SPITFT::drawPixel(short, short, unsigned short)
    adafruit_spitft.o(.constdata__ZTV15Adafruit_SPITFT) refers to adafruit_spitft.o(i._ZN15Adafruit_SPITFT10startWriteEv) for Adafruit_SPITFT::startWrite()
    adafruit_spitft.o(.constdata__ZTV15Adafruit_SPITFT) refers to adafruit_spitft.o(i._ZN15Adafruit_SPITFT10writePixelEsst) for Adafruit_SPITFT::writePixel(short, short, unsigned short)
    adafruit_spitft.o(.constdata__ZTV15Adafruit_SPITFT) refers to adafruit_spitft.o(i._ZN15Adafruit_SPITFT13writeFillRectEsssst) for Adafruit_SPITFT::writeFillRect(short, short, short, short, unsigned short)
    adafruit_spitft.o(.constdata__ZTV15Adafruit_SPITFT) refers to adafruit_spitft.o(i._ZN15Adafruit_SPITFT14writeFastVLineEssst) for Adafruit_SPITFT::writeFastVLine(short, short, short, unsigned short)
    adafruit_spitft.o(.constdata__ZTV15Adafruit_SPITFT) refers to adafruit_spitft.o(i._ZN15Adafruit_SPITFT14writeFastHLineEssst) for Adafruit_SPITFT::writeFastHLine(short, short, short, unsigned short)
    adafruit_spitft.o(.constdata__ZTV15Adafruit_SPITFT) refers to adafruit_gfx.o(i._ZN12Adafruit_GFX9writeLineEsssst) for Adafruit_GFX::writeLine(short, short, short, short, unsigned short)
    adafruit_spitft.o(.constdata__ZTV15Adafruit_SPITFT) refers to adafruit_spitft.o(i._ZN15Adafruit_SPITFT8endWriteEv) for Adafruit_SPITFT::endWrite()
    adafruit_spitft.o(.constdata__ZTV15Adafruit_SPITFT) refers to adafruit_gfx.o(i._ZN12Adafruit_GFX11setRotationEh) for Adafruit_GFX::setRotation(unsigned char)
    adafruit_spitft.o(.constdata__ZTV15Adafruit_SPITFT) refers to adafruit_spitft.o(i._ZN15Adafruit_SPITFT13invertDisplayEb) for Adafruit_SPITFT::invertDisplay(bool)
    adafruit_spitft.o(.constdata__ZTV15Adafruit_SPITFT) refers to adafruit_spitft.o(i._ZN15Adafruit_SPITFT13drawFastVLineEssst) for Adafruit_SPITFT::drawFastVLine(short, short, short, unsigned short)
    adafruit_spitft.o(.constdata__ZTV15Adafruit_SPITFT) refers to adafruit_spitft.o(i._ZN15Adafruit_SPITFT13drawFastHLineEssst) for Adafruit_SPITFT::drawFastHLine(short, short, short, unsigned short)
    adafruit_spitft.o(.constdata__ZTV15Adafruit_SPITFT) refers to adafruit_spitft.o(i._ZN15Adafruit_SPITFT8fillRectEsssst) for Adafruit_SPITFT::fillRect(short, short, short, short, unsigned short)
    adafruit_spitft.o(.constdata__ZTV15Adafruit_SPITFT) refers to adafruit_gfx.o(i._ZN12Adafruit_GFX10fillScreenEt) for Adafruit_GFX::fillScreen(unsigned short)
    adafruit_spitft.o(.constdata__ZTV15Adafruit_SPITFT) refers to adafruit_gfx.o(i._ZN12Adafruit_GFX8drawLineEsssst) for Adafruit_GFX::drawLine(short, short, short, short, unsigned short)
    adafruit_spitft.o(.constdata__ZTV15Adafruit_SPITFT) refers to adafruit_gfx.o(i._ZN12Adafruit_GFX8drawRectEsssst) for Adafruit_GFX::drawRect(short, short, short, short, unsigned short)
    adafruit_spitft.o(.constdata__ZTV15Adafruit_SPITFT) refers to adafruit_gfx.o(i._ZN12Adafruit_GFX5writeEh) for Adafruit_GFX::write(unsigned char)
    adafruit_spitft.o(.constdata__ZTV15Adafruit_SPITFT) refers to pure_virt.o(i.__cxa_pure_virtual) for __cxa_pure_virtual
    adafruit_spitft.o(.ARM.exidx) refers to adafruit_spitft.o(i._ZN15Adafruit_SPITFT13TFT_WR_STROBEEv) for i._ZN15Adafruit_SPITFT13TFT_WR_STROBEEv
    adafruit_spitft.o(i._ZN15Adafruit_SPITFT23writeFillRectPreclippedEsssst) refers to adafruit_spitft.o(i._ZN15Adafruit_SPITFT10writeColorEtj) for Adafruit_SPITFT::writeColor(unsigned short, unsigned)
    adafruit_spitft.o(.ARM.exidx) refers to adafruit_spitft.o(i._ZN15Adafruit_SPITFT23writeFillRectPreclippedEsssst) for i._ZN15Adafruit_SPITFT23writeFillRectPreclippedEsssst
    adafruit_spitft.o(.ARM.exidx) refers to adafruit_spitft.o(i._ZN15Adafruit_SPITFT10SPI_CS_LOWEv) for i._ZN15Adafruit_SPITFT10SPI_CS_LOWEv
    adafruit_spitft.o(.ARM.exidx) refers to adafruit_spitft.o(i._ZN15Adafruit_SPITFT21SPI_BEGIN_TRANSACTIONEv) for i._ZN15Adafruit_SPITFT21SPI_BEGIN_TRANSACTIONEv
    adafruit_spitft.o(.ARM.exidx) refers to adafruit_spitft.o(i._ZN15Adafruit_SPITFT11SPI_CS_HIGHEv) for i._ZN15Adafruit_SPITFT11SPI_CS_HIGHEv
    adafruit_spitft.o(.ARM.exidx) refers to adafruit_spitft.o(i._ZN15Adafruit_SPITFT11SPI_SCK_LOWEv) for i._ZN15Adafruit_SPITFT11SPI_SCK_LOWEv
    adafruit_spitft.o(.ARM.exidx) refers to adafruit_spitft.o(i._ZN15Adafruit_SPITFT12SPI_SCK_HIGHEv) for i._ZN15Adafruit_SPITFT12SPI_SCK_HIGHEv
    adafruit_spitft.o(.ARM.exidx) refers to adafruit_spitft.o(i._ZN15Adafruit_SPITFT12SPI_MOSI_LOWEv) for i._ZN15Adafruit_SPITFT12SPI_MOSI_LOWEv
    adafruit_spitft.o(.ARM.exidx) refers to adafruit_spitft.o(i._ZN15Adafruit_SPITFT13SPI_MOSI_HIGHEv) for i._ZN15Adafruit_SPITFT13SPI_MOSI_HIGHEv
    adafruit_spitft.o(.ARM.exidx) refers to adafruit_spitft.o(i._ZN15Adafruit_SPITFT11SPI_DC_HIGHEv) for i._ZN15Adafruit_SPITFT11SPI_DC_HIGHEv
    adafruit_spitft.o(.ARM.exidx) refers to adafruit_spitft.o(i._ZN15Adafruit_SPITFT10SPI_DC_LOWEv) for i._ZN15Adafruit_SPITFT10SPI_DC_LOWEv
    adafruit_spitft.o(i._ZN15Adafruit_SPITFT14writeFastHLineEssst) refers to adafruit_spitft.o(i._ZN15Adafruit_SPITFT23writeFillRectPreclippedEsssst) for Adafruit_SPITFT::writeFillRectPreclipped(short, short, short, short, unsigned short)
    adafruit_spitft.o(.ARM.exidx) refers to adafruit_spitft.o(i._ZN15Adafruit_SPITFT14writeFastHLineEssst) for i._ZN15Adafruit_SPITFT14writeFastHLineEssst
    adafruit_spitft.o(i._ZN15Adafruit_SPITFT14writeFastVLineEssst) refers to adafruit_spitft.o(i._ZN15Adafruit_SPITFT23writeFillRectPreclippedEsssst) for Adafruit_SPITFT::writeFillRectPreclipped(short, short, short, short, unsigned short)
    adafruit_spitft.o(.ARM.exidx) refers to adafruit_spitft.o(i._ZN15Adafruit_SPITFT14writeFastVLineEssst) for i._ZN15Adafruit_SPITFT14writeFastVLineEssst
    adafruit_spitft.o(.constdata__ZTI15Adafruit_SPITFT) refers to lib_rtti_impl.o(.constdata__ZTVN10__cxxabiv120__si_class_type_infoE) for vtable for __cxxabiv1::__si_class_type_info
    adafruit_spitft.o(.constdata__ZTI15Adafruit_SPITFT) refers to adafruit_spitft.o(.constdata__ZTS15Adafruit_SPITFT) for typeinfo name for Adafruit_SPITFT
    adafruit_spitft.o(.constdata__ZTI15Adafruit_SPITFT) refers to adafruit_gfx.o(.constdata__ZTI12Adafruit_GFX) for typeinfo for Adafruit_GFX
    adafruit_il0373.o(.constdata__ZTV15Adafruit_IL0373) refers to adafruit_il0373.o(.constdata__ZTI15Adafruit_IL0373) for typeinfo for Adafruit_IL0373
    adafruit_il0373.o(.constdata__ZTV15Adafruit_IL0373) refers to adafruit_epd.o(i._ZN12Adafruit_EPD9drawPixelEsst) for Adafruit_EPD::drawPixel(short, short, unsigned short)
    adafruit_il0373.o(.constdata__ZTV15Adafruit_IL0373) refers to adafruit_gfx.o(i._ZN12Adafruit_GFX10startWriteEv) for Adafruit_GFX::startWrite()
    adafruit_il0373.o(.constdata__ZTV15Adafruit_IL0373) refers to adafruit_gfx.o(i._ZN12Adafruit_GFX10writePixelEsst) for Adafruit_GFX::writePixel(short, short, unsigned short)
    adafruit_il0373.o(.constdata__ZTV15Adafruit_IL0373) refers to adafruit_gfx.o(i._ZN12Adafruit_GFX13writeFillRectEsssst) for Adafruit_GFX::writeFillRect(short, short, short, short, unsigned short)
    adafruit_il0373.o(.constdata__ZTV15Adafruit_IL0373) refers to adafruit_gfx.o(i._ZN12Adafruit_GFX14writeFastVLineEssst) for Adafruit_GFX::writeFastVLine(short, short, short, unsigned short)
    adafruit_il0373.o(.constdata__ZTV15Adafruit_IL0373) refers to adafruit_gfx.o(i._ZN12Adafruit_GFX14writeFastHLineEssst) for Adafruit_GFX::writeFastHLine(short, short, short, unsigned short)
    adafruit_il0373.o(.constdata__ZTV15Adafruit_IL0373) refers to adafruit_gfx.o(i._ZN12Adafruit_GFX9writeLineEsssst) for Adafruit_GFX::writeLine(short, short, short, short, unsigned short)
    adafruit_il0373.o(.constdata__ZTV15Adafruit_IL0373) refers to adafruit_gfx.o(i._ZN12Adafruit_GFX8endWriteEv) for Adafruit_GFX::endWrite()
    adafruit_il0373.o(.constdata__ZTV15Adafruit_IL0373) refers to adafruit_gfx.o(i._ZN12Adafruit_GFX11setRotationEh) for Adafruit_GFX::setRotation(unsigned char)
    adafruit_il0373.o(.constdata__ZTV15Adafruit_IL0373) refers to adafruit_gfx.o(i._ZN12Adafruit_GFX13invertDisplayEb) for Adafruit_GFX::invertDisplay(bool)
    adafruit_il0373.o(.constdata__ZTV15Adafruit_IL0373) refers to adafruit_gfx.o(i._ZN12Adafruit_GFX13drawFastVLineEssst) for Adafruit_GFX::drawFastVLine(short, short, short, unsigned short)
    adafruit_il0373.o(.constdata__ZTV15Adafruit_IL0373) refers to adafruit_gfx.o(i._ZN12Adafruit_GFX13drawFastHLineEssst) for Adafruit_GFX::drawFastHLine(short, short, short, unsigned short)
    adafruit_il0373.o(.constdata__ZTV15Adafruit_IL0373) refers to adafruit_gfx.o(i._ZN12Adafruit_GFX8fillRectEsssst) for Adafruit_GFX::fillRect(short, short, short, short, unsigned short)
    adafruit_il0373.o(.constdata__ZTV15Adafruit_IL0373) refers to adafruit_gfx.o(i._ZN12Adafruit_GFX10fillScreenEt) for Adafruit_GFX::fillScreen(unsigned short)
    adafruit_il0373.o(.constdata__ZTV15Adafruit_IL0373) refers to adafruit_gfx.o(i._ZN12Adafruit_GFX8drawLineEsssst) for Adafruit_GFX::drawLine(short, short, short, short, unsigned short)
    adafruit_il0373.o(.constdata__ZTV15Adafruit_IL0373) refers to adafruit_gfx.o(i._ZN12Adafruit_GFX8drawRectEsssst) for Adafruit_GFX::drawRect(short, short, short, short, unsigned short)
    adafruit_il0373.o(.constdata__ZTV15Adafruit_IL0373) refers to adafruit_gfx.o(i._ZN12Adafruit_GFX5writeEh) for Adafruit_GFX::write(unsigned char)
    adafruit_il0373.o(.constdata__ZTV15Adafruit_IL0373) refers to adafruit_il0373.o(i._ZN15Adafruit_IL037315writeRAMCommandEh) for Adafruit_IL0373::writeRAMCommand(unsigned char)
    adafruit_il0373.o(.constdata__ZTV15Adafruit_IL0373) refers to adafruit_il0373.o(i._ZN15Adafruit_IL037313setRAMAddressEtt) for Adafruit_IL0373::setRAMAddress(unsigned short, unsigned short)
    adafruit_il0373.o(.constdata__ZTV15Adafruit_IL0373) refers to adafruit_il0373.o(i._ZN15Adafruit_IL03739busy_waitEv) for Adafruit_IL0373::busy_wait()
    adafruit_il0373.o(.constdata__ZTV15Adafruit_IL0373) refers to adafruit_il0373.o(i._ZN15Adafruit_IL03737powerUpEv) for Adafruit_IL0373::powerUp()
    adafruit_il0373.o(.constdata__ZTV15Adafruit_IL0373) refers to adafruit_il0373.o(i._ZN15Adafruit_IL03736updateEv) for Adafruit_IL0373::update()
    adafruit_il0373.o(.constdata__ZTV15Adafruit_IL0373) refers to adafruit_il0373.o(i._ZN15Adafruit_IL03739powerDownEv) for Adafruit_IL0373::powerDown()
    adafruit_il0373.o(.constdata__ZTI15Adafruit_IL0373) refers to lib_rtti_impl.o(.constdata__ZTVN10__cxxabiv120__si_class_type_infoE) for vtable for __cxxabiv1::__si_class_type_info
    adafruit_il0373.o(.constdata__ZTI15Adafruit_IL0373) refers to adafruit_il0373.o(.constdata__ZTS15Adafruit_IL0373) for typeinfo name for Adafruit_IL0373
    adafruit_il0373.o(.constdata__ZTI15Adafruit_IL0373) refers to adafruit_epd.o(.constdata__ZTI12Adafruit_EPD) for typeinfo for Adafruit_EPD
    adafruit_il0398.o(.constdata__ZTV15Adafruit_IL0398) refers to adafruit_il0398.o(.constdata__ZTI15Adafruit_IL0398) for typeinfo for Adafruit_IL0398
    adafruit_il0398.o(.constdata__ZTV15Adafruit_IL0398) refers to adafruit_epd.o(i._ZN12Adafruit_EPD9drawPixelEsst) for Adafruit_EPD::drawPixel(short, short, unsigned short)
    adafruit_il0398.o(.constdata__ZTV15Adafruit_IL0398) refers to adafruit_gfx.o(i._ZN12Adafruit_GFX10startWriteEv) for Adafruit_GFX::startWrite()
    adafruit_il0398.o(.constdata__ZTV15Adafruit_IL0398) refers to adafruit_gfx.o(i._ZN12Adafruit_GFX10writePixelEsst) for Adafruit_GFX::writePixel(short, short, unsigned short)
    adafruit_il0398.o(.constdata__ZTV15Adafruit_IL0398) refers to adafruit_gfx.o(i._ZN12Adafruit_GFX13writeFillRectEsssst) for Adafruit_GFX::writeFillRect(short, short, short, short, unsigned short)
    adafruit_il0398.o(.constdata__ZTV15Adafruit_IL0398) refers to adafruit_gfx.o(i._ZN12Adafruit_GFX14writeFastVLineEssst) for Adafruit_GFX::writeFastVLine(short, short, short, unsigned short)
    adafruit_il0398.o(.constdata__ZTV15Adafruit_IL0398) refers to adafruit_gfx.o(i._ZN12Adafruit_GFX14writeFastHLineEssst) for Adafruit_GFX::writeFastHLine(short, short, short, unsigned short)
    adafruit_il0398.o(.constdata__ZTV15Adafruit_IL0398) refers to adafruit_gfx.o(i._ZN12Adafruit_GFX9writeLineEsssst) for Adafruit_GFX::writeLine(short, short, short, short, unsigned short)
    adafruit_il0398.o(.constdata__ZTV15Adafruit_IL0398) refers to adafruit_gfx.o(i._ZN12Adafruit_GFX8endWriteEv) for Adafruit_GFX::endWrite()
    adafruit_il0398.o(.constdata__ZTV15Adafruit_IL0398) refers to adafruit_gfx.o(i._ZN12Adafruit_GFX11setRotationEh) for Adafruit_GFX::setRotation(unsigned char)
    adafruit_il0398.o(.constdata__ZTV15Adafruit_IL0398) refers to adafruit_gfx.o(i._ZN12Adafruit_GFX13invertDisplayEb) for Adafruit_GFX::invertDisplay(bool)
    adafruit_il0398.o(.constdata__ZTV15Adafruit_IL0398) refers to adafruit_gfx.o(i._ZN12Adafruit_GFX13drawFastVLineEssst) for Adafruit_GFX::drawFastVLine(short, short, short, unsigned short)
    adafruit_il0398.o(.constdata__ZTV15Adafruit_IL0398) refers to adafruit_gfx.o(i._ZN12Adafruit_GFX13drawFastHLineEssst) for Adafruit_GFX::drawFastHLine(short, short, short, unsigned short)
    adafruit_il0398.o(.constdata__ZTV15Adafruit_IL0398) refers to adafruit_gfx.o(i._ZN12Adafruit_GFX8fillRectEsssst) for Adafruit_GFX::fillRect(short, short, short, short, unsigned short)
    adafruit_il0398.o(.constdata__ZTV15Adafruit_IL0398) refers to adafruit_gfx.o(i._ZN12Adafruit_GFX10fillScreenEt) for Adafruit_GFX::fillScreen(unsigned short)
    adafruit_il0398.o(.constdata__ZTV15Adafruit_IL0398) refers to adafruit_gfx.o(i._ZN12Adafruit_GFX8drawLineEsssst) for Adafruit_GFX::drawLine(short, short, short, short, unsigned short)
    adafruit_il0398.o(.constdata__ZTV15Adafruit_IL0398) refers to adafruit_gfx.o(i._ZN12Adafruit_GFX8drawRectEsssst) for Adafruit_GFX::drawRect(short, short, short, short, unsigned short)
    adafruit_il0398.o(.constdata__ZTV15Adafruit_IL0398) refers to adafruit_gfx.o(i._ZN12Adafruit_GFX5writeEh) for Adafruit_GFX::write(unsigned char)
    adafruit_il0398.o(.constdata__ZTV15Adafruit_IL0398) refers to adafruit_il0398.o(i._ZN15Adafruit_IL039815writeRAMCommandEh) for Adafruit_IL0398::writeRAMCommand(unsigned char)
    adafruit_il0398.o(.constdata__ZTV15Adafruit_IL0398) refers to adafruit_il0398.o(i._ZN15Adafruit_IL039813setRAMAddressEtt) for Adafruit_IL0398::setRAMAddress(unsigned short, unsigned short)
    adafruit_il0398.o(.constdata__ZTV15Adafruit_IL0398) refers to adafruit_il0398.o(i._ZN15Adafruit_IL03989busy_waitEv) for Adafruit_IL0398::busy_wait()
    adafruit_il0398.o(.constdata__ZTV15Adafruit_IL0398) refers to adafruit_il0398.o(i._ZN15Adafruit_IL03987powerUpEv) for Adafruit_IL0398::powerUp()
    adafruit_il0398.o(.constdata__ZTV15Adafruit_IL0398) refers to adafruit_il0398.o(i._ZN15Adafruit_IL03986updateEv) for Adafruit_IL0398::update()
    adafruit_il0398.o(.constdata__ZTV15Adafruit_IL0398) refers to adafruit_il0398.o(i._ZN15Adafruit_IL03989powerDownEv) for Adafruit_IL0398::powerDown()
    adafruit_il0398.o(.constdata__ZTI15Adafruit_IL0398) refers to lib_rtti_impl.o(.constdata__ZTVN10__cxxabiv120__si_class_type_infoE) for vtable for __cxxabiv1::__si_class_type_info
    adafruit_il0398.o(.constdata__ZTI15Adafruit_IL0398) refers to adafruit_il0398.o(.constdata__ZTS15Adafruit_IL0398) for typeinfo name for Adafruit_IL0398
    adafruit_il0398.o(.constdata__ZTI15Adafruit_IL0398) refers to adafruit_epd.o(.constdata__ZTI12Adafruit_EPD) for typeinfo for Adafruit_EPD
    adafruit_il91874.o(.constdata__ZTV16Adafruit_IL91874) refers to adafruit_il91874.o(.constdata__ZTI16Adafruit_IL91874) for typeinfo for Adafruit_IL91874
    adafruit_il91874.o(.constdata__ZTV16Adafruit_IL91874) refers to adafruit_epd.o(i._ZN12Adafruit_EPD9drawPixelEsst) for Adafruit_EPD::drawPixel(short, short, unsigned short)
    adafruit_il91874.o(.constdata__ZTV16Adafruit_IL91874) refers to adafruit_gfx.o(i._ZN12Adafruit_GFX10startWriteEv) for Adafruit_GFX::startWrite()
    adafruit_il91874.o(.constdata__ZTV16Adafruit_IL91874) refers to adafruit_gfx.o(i._ZN12Adafruit_GFX10writePixelEsst) for Adafruit_GFX::writePixel(short, short, unsigned short)
    adafruit_il91874.o(.constdata__ZTV16Adafruit_IL91874) refers to adafruit_gfx.o(i._ZN12Adafruit_GFX13writeFillRectEsssst) for Adafruit_GFX::writeFillRect(short, short, short, short, unsigned short)
    adafruit_il91874.o(.constdata__ZTV16Adafruit_IL91874) refers to adafruit_gfx.o(i._ZN12Adafruit_GFX14writeFastVLineEssst) for Adafruit_GFX::writeFastVLine(short, short, short, unsigned short)
    adafruit_il91874.o(.constdata__ZTV16Adafruit_IL91874) refers to adafruit_gfx.o(i._ZN12Adafruit_GFX14writeFastHLineEssst) for Adafruit_GFX::writeFastHLine(short, short, short, unsigned short)
    adafruit_il91874.o(.constdata__ZTV16Adafruit_IL91874) refers to adafruit_gfx.o(i._ZN12Adafruit_GFX9writeLineEsssst) for Adafruit_GFX::writeLine(short, short, short, short, unsigned short)
    adafruit_il91874.o(.constdata__ZTV16Adafruit_IL91874) refers to adafruit_gfx.o(i._ZN12Adafruit_GFX8endWriteEv) for Adafruit_GFX::endWrite()
    adafruit_il91874.o(.constdata__ZTV16Adafruit_IL91874) refers to adafruit_gfx.o(i._ZN12Adafruit_GFX11setRotationEh) for Adafruit_GFX::setRotation(unsigned char)
    adafruit_il91874.o(.constdata__ZTV16Adafruit_IL91874) refers to adafruit_gfx.o(i._ZN12Adafruit_GFX13invertDisplayEb) for Adafruit_GFX::invertDisplay(bool)
    adafruit_il91874.o(.constdata__ZTV16Adafruit_IL91874) refers to adafruit_gfx.o(i._ZN12Adafruit_GFX13drawFastVLineEssst) for Adafruit_GFX::drawFastVLine(short, short, short, unsigned short)
    adafruit_il91874.o(.constdata__ZTV16Adafruit_IL91874) refers to adafruit_gfx.o(i._ZN12Adafruit_GFX13drawFastHLineEssst) for Adafruit_GFX::drawFastHLine(short, short, short, unsigned short)
    adafruit_il91874.o(.constdata__ZTV16Adafruit_IL91874) refers to adafruit_gfx.o(i._ZN12Adafruit_GFX8fillRectEsssst) for Adafruit_GFX::fillRect(short, short, short, short, unsigned short)
    adafruit_il91874.o(.constdata__ZTV16Adafruit_IL91874) refers to adafruit_gfx.o(i._ZN12Adafruit_GFX10fillScreenEt) for Adafruit_GFX::fillScreen(unsigned short)
    adafruit_il91874.o(.constdata__ZTV16Adafruit_IL91874) refers to adafruit_gfx.o(i._ZN12Adafruit_GFX8drawLineEsssst) for Adafruit_GFX::drawLine(short, short, short, short, unsigned short)
    adafruit_il91874.o(.constdata__ZTV16Adafruit_IL91874) refers to adafruit_gfx.o(i._ZN12Adafruit_GFX8drawRectEsssst) for Adafruit_GFX::drawRect(short, short, short, short, unsigned short)
    adafruit_il91874.o(.constdata__ZTV16Adafruit_IL91874) refers to adafruit_gfx.o(i._ZN12Adafruit_GFX5writeEh) for Adafruit_GFX::write(unsigned char)
    adafruit_il91874.o(.constdata__ZTV16Adafruit_IL91874) refers to adafruit_il91874.o(i._ZN16Adafruit_IL9187415writeRAMCommandEh) for Adafruit_IL91874::writeRAMCommand(unsigned char)
    adafruit_il91874.o(.constdata__ZTV16Adafruit_IL91874) refers to adafruit_il91874.o(i._ZN16Adafruit_IL9187413setRAMAddressEtt) for Adafruit_IL91874::setRAMAddress(unsigned short, unsigned short)
    adafruit_il91874.o(.constdata__ZTV16Adafruit_IL91874) refers to adafruit_il91874.o(i._ZN16Adafruit_IL918749busy_waitEv) for Adafruit_IL91874::busy_wait()
    adafruit_il91874.o(.constdata__ZTV16Adafruit_IL91874) refers to adafruit_il91874.o(i._ZN16Adafruit_IL918747powerUpEv) for Adafruit_IL91874::powerUp()
    adafruit_il91874.o(.constdata__ZTV16Adafruit_IL91874) refers to adafruit_il91874.o(i._ZN16Adafruit_IL918746updateEv) for Adafruit_IL91874::update()
    adafruit_il91874.o(.constdata__ZTV16Adafruit_IL91874) refers to adafruit_il91874.o(i._ZN16Adafruit_IL918749powerDownEv) for Adafruit_IL91874::powerDown()
    adafruit_il91874.o(.constdata__ZTI16Adafruit_IL91874) refers to lib_rtti_impl.o(.constdata__ZTVN10__cxxabiv120__si_class_type_infoE) for vtable for __cxxabiv1::__si_class_type_info
    adafruit_il91874.o(.constdata__ZTI16Adafruit_IL91874) refers to adafruit_il91874.o(.constdata__ZTS16Adafruit_IL91874) for typeinfo name for Adafruit_IL91874
    adafruit_il91874.o(.constdata__ZTI16Adafruit_IL91874) refers to adafruit_epd.o(.constdata__ZTI12Adafruit_EPD) for typeinfo for Adafruit_EPD
    adafruit_ssd1608.o(.constdata__ZTV16Adafruit_SSD1608) refers to adafruit_ssd1608.o(.constdata__ZTI16Adafruit_SSD1608) for typeinfo for Adafruit_SSD1608
    adafruit_ssd1608.o(.constdata__ZTV16Adafruit_SSD1608) refers to adafruit_epd.o(i._ZN12Adafruit_EPD9drawPixelEsst) for Adafruit_EPD::drawPixel(short, short, unsigned short)
    adafruit_ssd1608.o(.constdata__ZTV16Adafruit_SSD1608) refers to adafruit_gfx.o(i._ZN12Adafruit_GFX10startWriteEv) for Adafruit_GFX::startWrite()
    adafruit_ssd1608.o(.constdata__ZTV16Adafruit_SSD1608) refers to adafruit_gfx.o(i._ZN12Adafruit_GFX10writePixelEsst) for Adafruit_GFX::writePixel(short, short, unsigned short)
    adafruit_ssd1608.o(.constdata__ZTV16Adafruit_SSD1608) refers to adafruit_gfx.o(i._ZN12Adafruit_GFX13writeFillRectEsssst) for Adafruit_GFX::writeFillRect(short, short, short, short, unsigned short)
    adafruit_ssd1608.o(.constdata__ZTV16Adafruit_SSD1608) refers to adafruit_gfx.o(i._ZN12Adafruit_GFX14writeFastVLineEssst) for Adafruit_GFX::writeFastVLine(short, short, short, unsigned short)
    adafruit_ssd1608.o(.constdata__ZTV16Adafruit_SSD1608) refers to adafruit_gfx.o(i._ZN12Adafruit_GFX14writeFastHLineEssst) for Adafruit_GFX::writeFastHLine(short, short, short, unsigned short)
    adafruit_ssd1608.o(.constdata__ZTV16Adafruit_SSD1608) refers to adafruit_gfx.o(i._ZN12Adafruit_GFX9writeLineEsssst) for Adafruit_GFX::writeLine(short, short, short, short, unsigned short)
    adafruit_ssd1608.o(.constdata__ZTV16Adafruit_SSD1608) refers to adafruit_gfx.o(i._ZN12Adafruit_GFX8endWriteEv) for Adafruit_GFX::endWrite()
    adafruit_ssd1608.o(.constdata__ZTV16Adafruit_SSD1608) refers to adafruit_gfx.o(i._ZN12Adafruit_GFX11setRotationEh) for Adafruit_GFX::setRotation(unsigned char)
    adafruit_ssd1608.o(.constdata__ZTV16Adafruit_SSD1608) refers to adafruit_gfx.o(i._ZN12Adafruit_GFX13invertDisplayEb) for Adafruit_GFX::invertDisplay(bool)
    adafruit_ssd1608.o(.constdata__ZTV16Adafruit_SSD1608) refers to adafruit_gfx.o(i._ZN12Adafruit_GFX13drawFastVLineEssst) for Adafruit_GFX::drawFastVLine(short, short, short, unsigned short)
    adafruit_ssd1608.o(.constdata__ZTV16Adafruit_SSD1608) refers to adafruit_gfx.o(i._ZN12Adafruit_GFX13drawFastHLineEssst) for Adafruit_GFX::drawFastHLine(short, short, short, unsigned short)
    adafruit_ssd1608.o(.constdata__ZTV16Adafruit_SSD1608) refers to adafruit_gfx.o(i._ZN12Adafruit_GFX8fillRectEsssst) for Adafruit_GFX::fillRect(short, short, short, short, unsigned short)
    adafruit_ssd1608.o(.constdata__ZTV16Adafruit_SSD1608) refers to adafruit_gfx.o(i._ZN12Adafruit_GFX10fillScreenEt) for Adafruit_GFX::fillScreen(unsigned short)
    adafruit_ssd1608.o(.constdata__ZTV16Adafruit_SSD1608) refers to adafruit_gfx.o(i._ZN12Adafruit_GFX8drawLineEsssst) for Adafruit_GFX::drawLine(short, short, short, short, unsigned short)
    adafruit_ssd1608.o(.constdata__ZTV16Adafruit_SSD1608) refers to adafruit_gfx.o(i._ZN12Adafruit_GFX8drawRectEsssst) for Adafruit_GFX::drawRect(short, short, short, short, unsigned short)
    adafruit_ssd1608.o(.constdata__ZTV16Adafruit_SSD1608) refers to adafruit_gfx.o(i._ZN12Adafruit_GFX5writeEh) for Adafruit_GFX::write(unsigned char)
    adafruit_ssd1608.o(.constdata__ZTV16Adafruit_SSD1608) refers to adafruit_ssd1608.o(i._ZN16Adafruit_SSD160815writeRAMCommandEh) for Adafruit_SSD1608::writeRAMCommand(unsigned char)
    adafruit_ssd1608.o(.constdata__ZTV16Adafruit_SSD1608) refers to adafruit_ssd1608.o(i._ZN16Adafruit_SSD160813setRAMAddressEtt) for Adafruit_SSD1608::setRAMAddress(unsigned short, unsigned short)
    adafruit_ssd1608.o(.constdata__ZTV16Adafruit_SSD1608) refers to adafruit_ssd1608.o(i._ZN16Adafruit_SSD16089busy_waitEv) for Adafruit_SSD1608::busy_wait()
    adafruit_ssd1608.o(.constdata__ZTV16Adafruit_SSD1608) refers to adafruit_ssd1608.o(i._ZN16Adafruit_SSD16087powerUpEv) for Adafruit_SSD1608::powerUp()
    adafruit_ssd1608.o(.constdata__ZTV16Adafruit_SSD1608) refers to adafruit_ssd1608.o(i._ZN16Adafruit_SSD16086updateEv) for Adafruit_SSD1608::update()
    adafruit_ssd1608.o(.constdata__ZTV16Adafruit_SSD1608) refers to adafruit_ssd1608.o(i._ZN16Adafruit_SSD16089powerDownEv) for Adafruit_SSD1608::powerDown()
    adafruit_ssd1608.o(.constdata__ZTI16Adafruit_SSD1608) refers to lib_rtti_impl.o(.constdata__ZTVN10__cxxabiv120__si_class_type_infoE) for vtable for __cxxabiv1::__si_class_type_info
    adafruit_ssd1608.o(.constdata__ZTI16Adafruit_SSD1608) refers to adafruit_ssd1608.o(.constdata__ZTS16Adafruit_SSD1608) for typeinfo name for Adafruit_SSD1608
    adafruit_ssd1608.o(.constdata__ZTI16Adafruit_SSD1608) refers to adafruit_epd.o(.constdata__ZTI12Adafruit_EPD) for typeinfo for Adafruit_EPD
    adafruit_ssd1619.o(.constdata__ZTV16Adafruit_SSD1619) refers to adafruit_ssd1619.o(.constdata__ZTI16Adafruit_SSD1619) for typeinfo for Adafruit_SSD1619
    adafruit_ssd1619.o(.constdata__ZTV16Adafruit_SSD1619) refers to adafruit_epd.o(i._ZN12Adafruit_EPD9drawPixelEsst) for Adafruit_EPD::drawPixel(short, short, unsigned short)
    adafruit_ssd1619.o(.constdata__ZTV16Adafruit_SSD1619) refers to adafruit_gfx.o(i._ZN12Adafruit_GFX10startWriteEv) for Adafruit_GFX::startWrite()
    adafruit_ssd1619.o(.constdata__ZTV16Adafruit_SSD1619) refers to adafruit_gfx.o(i._ZN12Adafruit_GFX10writePixelEsst) for Adafruit_GFX::writePixel(short, short, unsigned short)
    adafruit_ssd1619.o(.constdata__ZTV16Adafruit_SSD1619) refers to adafruit_gfx.o(i._ZN12Adafruit_GFX13writeFillRectEsssst) for Adafruit_GFX::writeFillRect(short, short, short, short, unsigned short)
    adafruit_ssd1619.o(.constdata__ZTV16Adafruit_SSD1619) refers to adafruit_gfx.o(i._ZN12Adafruit_GFX14writeFastVLineEssst) for Adafruit_GFX::writeFastVLine(short, short, short, unsigned short)
    adafruit_ssd1619.o(.constdata__ZTV16Adafruit_SSD1619) refers to adafruit_gfx.o(i._ZN12Adafruit_GFX14writeFastHLineEssst) for Adafruit_GFX::writeFastHLine(short, short, short, unsigned short)
    adafruit_ssd1619.o(.constdata__ZTV16Adafruit_SSD1619) refers to adafruit_gfx.o(i._ZN12Adafruit_GFX9writeLineEsssst) for Adafruit_GFX::writeLine(short, short, short, short, unsigned short)
    adafruit_ssd1619.o(.constdata__ZTV16Adafruit_SSD1619) refers to adafruit_gfx.o(i._ZN12Adafruit_GFX8endWriteEv) for Adafruit_GFX::endWrite()
    adafruit_ssd1619.o(.constdata__ZTV16Adafruit_SSD1619) refers to adafruit_gfx.o(i._ZN12Adafruit_GFX11setRotationEh) for Adafruit_GFX::setRotation(unsigned char)
    adafruit_ssd1619.o(.constdata__ZTV16Adafruit_SSD1619) refers to adafruit_gfx.o(i._ZN12Adafruit_GFX13invertDisplayEb) for Adafruit_GFX::invertDisplay(bool)
    adafruit_ssd1619.o(.constdata__ZTV16Adafruit_SSD1619) refers to adafruit_gfx.o(i._ZN12Adafruit_GFX13drawFastVLineEssst) for Adafruit_GFX::drawFastVLine(short, short, short, unsigned short)
    adafruit_ssd1619.o(.constdata__ZTV16Adafruit_SSD1619) refers to adafruit_gfx.o(i._ZN12Adafruit_GFX13drawFastHLineEssst) for Adafruit_GFX::drawFastHLine(short, short, short, unsigned short)
    adafruit_ssd1619.o(.constdata__ZTV16Adafruit_SSD1619) refers to adafruit_gfx.o(i._ZN12Adafruit_GFX8fillRectEsssst) for Adafruit_GFX::fillRect(short, short, short, short, unsigned short)
    adafruit_ssd1619.o(.constdata__ZTV16Adafruit_SSD1619) refers to adafruit_gfx.o(i._ZN12Adafruit_GFX10fillScreenEt) for Adafruit_GFX::fillScreen(unsigned short)
    adafruit_ssd1619.o(.constdata__ZTV16Adafruit_SSD1619) refers to adafruit_gfx.o(i._ZN12Adafruit_GFX8drawLineEsssst) for Adafruit_GFX::drawLine(short, short, short, short, unsigned short)
    adafruit_ssd1619.o(.constdata__ZTV16Adafruit_SSD1619) refers to adafruit_gfx.o(i._ZN12Adafruit_GFX8drawRectEsssst) for Adafruit_GFX::drawRect(short, short, short, short, unsigned short)
    adafruit_ssd1619.o(.constdata__ZTV16Adafruit_SSD1619) refers to adafruit_gfx.o(i._ZN12Adafruit_GFX5writeEh) for Adafruit_GFX::write(unsigned char)
    adafruit_ssd1619.o(.constdata__ZTV16Adafruit_SSD1619) refers to adafruit_ssd1619.o(i._ZN16Adafruit_SSD161915writeRAMCommandEh) for Adafruit_SSD1619::writeRAMCommand(unsigned char)
    adafruit_ssd1619.o(.constdata__ZTV16Adafruit_SSD1619) refers to adafruit_ssd1619.o(i._ZN16Adafruit_SSD161913setRAMAddressEtt) for Adafruit_SSD1619::setRAMAddress(unsigned short, unsigned short)
    adafruit_ssd1619.o(.constdata__ZTV16Adafruit_SSD1619) refers to adafruit_ssd1619.o(i._ZN16Adafruit_SSD16199busy_waitEv) for Adafruit_SSD1619::busy_wait()
    adafruit_ssd1619.o(.constdata__ZTV16Adafruit_SSD1619) refers to adafruit_ssd1619.o(i._ZN16Adafruit_SSD16197powerUpEv) for Adafruit_SSD1619::powerUp()
    adafruit_ssd1619.o(.constdata__ZTV16Adafruit_SSD1619) refers to adafruit_ssd1619.o(i._ZN16Adafruit_SSD16196updateEv) for Adafruit_SSD1619::update()
    adafruit_ssd1619.o(.constdata__ZTV16Adafruit_SSD1619) refers to adafruit_ssd1619.o(i._ZN16Adafruit_SSD16199powerDownEv) for Adafruit_SSD1619::powerDown()
    adafruit_ssd1619.o(.constdata__ZTI16Adafruit_SSD1619) refers to lib_rtti_impl.o(.constdata__ZTVN10__cxxabiv120__si_class_type_infoE) for vtable for __cxxabiv1::__si_class_type_info
    adafruit_ssd1619.o(.constdata__ZTI16Adafruit_SSD1619) refers to adafruit_ssd1619.o(.constdata__ZTS16Adafruit_SSD1619) for typeinfo name for Adafruit_SSD1619
    adafruit_ssd1619.o(.constdata__ZTI16Adafruit_SSD1619) refers to adafruit_epd.o(.constdata__ZTI12Adafruit_EPD) for typeinfo for Adafruit_EPD
    adafruit_ssd1675.o(.constdata__ZTV16Adafruit_SSD1675) refers to adafruit_ssd1675.o(.constdata__ZTI16Adafruit_SSD1675) for typeinfo for Adafruit_SSD1675
    adafruit_ssd1675.o(.constdata__ZTV16Adafruit_SSD1675) refers to adafruit_epd.o(i._ZN12Adafruit_EPD9drawPixelEsst) for Adafruit_EPD::drawPixel(short, short, unsigned short)
    adafruit_ssd1675.o(.constdata__ZTV16Adafruit_SSD1675) refers to adafruit_gfx.o(i._ZN12Adafruit_GFX10startWriteEv) for Adafruit_GFX::startWrite()
    adafruit_ssd1675.o(.constdata__ZTV16Adafruit_SSD1675) refers to adafruit_gfx.o(i._ZN12Adafruit_GFX10writePixelEsst) for Adafruit_GFX::writePixel(short, short, unsigned short)
    adafruit_ssd1675.o(.constdata__ZTV16Adafruit_SSD1675) refers to adafruit_gfx.o(i._ZN12Adafruit_GFX13writeFillRectEsssst) for Adafruit_GFX::writeFillRect(short, short, short, short, unsigned short)
    adafruit_ssd1675.o(.constdata__ZTV16Adafruit_SSD1675) refers to adafruit_gfx.o(i._ZN12Adafruit_GFX14writeFastVLineEssst) for Adafruit_GFX::writeFastVLine(short, short, short, unsigned short)
    adafruit_ssd1675.o(.constdata__ZTV16Adafruit_SSD1675) refers to adafruit_gfx.o(i._ZN12Adafruit_GFX14writeFastHLineEssst) for Adafruit_GFX::writeFastHLine(short, short, short, unsigned short)
    adafruit_ssd1675.o(.constdata__ZTV16Adafruit_SSD1675) refers to adafruit_gfx.o(i._ZN12Adafruit_GFX9writeLineEsssst) for Adafruit_GFX::writeLine(short, short, short, short, unsigned short)
    adafruit_ssd1675.o(.constdata__ZTV16Adafruit_SSD1675) refers to adafruit_gfx.o(i._ZN12Adafruit_GFX8endWriteEv) for Adafruit_GFX::endWrite()
    adafruit_ssd1675.o(.constdata__ZTV16Adafruit_SSD1675) refers to adafruit_gfx.o(i._ZN12Adafruit_GFX11setRotationEh) for Adafruit_GFX::setRotation(unsigned char)
    adafruit_ssd1675.o(.constdata__ZTV16Adafruit_SSD1675) refers to adafruit_gfx.o(i._ZN12Adafruit_GFX13invertDisplayEb) for Adafruit_GFX::invertDisplay(bool)
    adafruit_ssd1675.o(.constdata__ZTV16Adafruit_SSD1675) refers to adafruit_gfx.o(i._ZN12Adafruit_GFX13drawFastVLineEssst) for Adafruit_GFX::drawFastVLine(short, short, short, unsigned short)
    adafruit_ssd1675.o(.constdata__ZTV16Adafruit_SSD1675) refers to adafruit_gfx.o(i._ZN12Adafruit_GFX13drawFastHLineEssst) for Adafruit_GFX::drawFastHLine(short, short, short, unsigned short)
    adafruit_ssd1675.o(.constdata__ZTV16Adafruit_SSD1675) refers to adafruit_gfx.o(i._ZN12Adafruit_GFX8fillRectEsssst) for Adafruit_GFX::fillRect(short, short, short, short, unsigned short)
    adafruit_ssd1675.o(.constdata__ZTV16Adafruit_SSD1675) refers to adafruit_gfx.o(i._ZN12Adafruit_GFX10fillScreenEt) for Adafruit_GFX::fillScreen(unsigned short)
    adafruit_ssd1675.o(.constdata__ZTV16Adafruit_SSD1675) refers to adafruit_gfx.o(i._ZN12Adafruit_GFX8drawLineEsssst) for Adafruit_GFX::drawLine(short, short, short, short, unsigned short)
    adafruit_ssd1675.o(.constdata__ZTV16Adafruit_SSD1675) refers to adafruit_gfx.o(i._ZN12Adafruit_GFX8drawRectEsssst) for Adafruit_GFX::drawRect(short, short, short, short, unsigned short)
    adafruit_ssd1675.o(.constdata__ZTV16Adafruit_SSD1675) refers to adafruit_gfx.o(i._ZN12Adafruit_GFX5writeEh) for Adafruit_GFX::write(unsigned char)
    adafruit_ssd1675.o(.constdata__ZTV16Adafruit_SSD1675) refers to adafruit_ssd1675.o(i._ZN16Adafruit_SSD167515writeRAMCommandEh) for Adafruit_SSD1675::writeRAMCommand(unsigned char)
    adafruit_ssd1675.o(.constdata__ZTV16Adafruit_SSD1675) refers to adafruit_ssd1675.o(i._ZN16Adafruit_SSD167513setRAMAddressEtt) for Adafruit_SSD1675::setRAMAddress(unsigned short, unsigned short)
    adafruit_ssd1675.o(.constdata__ZTV16Adafruit_SSD1675) refers to adafruit_ssd1675.o(i._ZN16Adafruit_SSD16759busy_waitEv) for Adafruit_SSD1675::busy_wait()
    adafruit_ssd1675.o(.constdata__ZTV16Adafruit_SSD1675) refers to adafruit_ssd1675.o(i._ZN16Adafruit_SSD16757powerUpEv) for Adafruit_SSD1675::powerUp()
    adafruit_ssd1675.o(.constdata__ZTV16Adafruit_SSD1675) refers to adafruit_ssd1675.o(i._ZN16Adafruit_SSD16756updateEv) for Adafruit_SSD1675::update()
    adafruit_ssd1675.o(.constdata__ZTV16Adafruit_SSD1675) refers to adafruit_ssd1675.o(i._ZN16Adafruit_SSD16759powerDownEv) for Adafruit_SSD1675::powerDown()
    adafruit_ssd1675.o(.constdata__ZTI16Adafruit_SSD1675) refers to lib_rtti_impl.o(.constdata__ZTVN10__cxxabiv120__si_class_type_infoE) for vtable for __cxxabiv1::__si_class_type_info
    adafruit_ssd1675.o(.constdata__ZTI16Adafruit_SSD1675) refers to adafruit_ssd1675.o(.constdata__ZTS16Adafruit_SSD1675) for typeinfo name for Adafruit_SSD1675
    adafruit_ssd1675.o(.constdata__ZTI16Adafruit_SSD1675) refers to adafruit_epd.o(.constdata__ZTI12Adafruit_EPD) for typeinfo for Adafruit_EPD
    adafruit_ssd1675b.o(.constdata__ZTV17Adafruit_SSD1675B) refers to adafruit_ssd1675b.o(.constdata__ZTI17Adafruit_SSD1675B) for typeinfo for Adafruit_SSD1675B
    adafruit_ssd1675b.o(.constdata__ZTV17Adafruit_SSD1675B) refers to adafruit_epd.o(i._ZN12Adafruit_EPD9drawPixelEsst) for Adafruit_EPD::drawPixel(short, short, unsigned short)
    adafruit_ssd1675b.o(.constdata__ZTV17Adafruit_SSD1675B) refers to adafruit_gfx.o(i._ZN12Adafruit_GFX10startWriteEv) for Adafruit_GFX::startWrite()
    adafruit_ssd1675b.o(.constdata__ZTV17Adafruit_SSD1675B) refers to adafruit_gfx.o(i._ZN12Adafruit_GFX10writePixelEsst) for Adafruit_GFX::writePixel(short, short, unsigned short)
    adafruit_ssd1675b.o(.constdata__ZTV17Adafruit_SSD1675B) refers to adafruit_gfx.o(i._ZN12Adafruit_GFX13writeFillRectEsssst) for Adafruit_GFX::writeFillRect(short, short, short, short, unsigned short)
    adafruit_ssd1675b.o(.constdata__ZTV17Adafruit_SSD1675B) refers to adafruit_gfx.o(i._ZN12Adafruit_GFX14writeFastVLineEssst) for Adafruit_GFX::writeFastVLine(short, short, short, unsigned short)
    adafruit_ssd1675b.o(.constdata__ZTV17Adafruit_SSD1675B) refers to adafruit_gfx.o(i._ZN12Adafruit_GFX14writeFastHLineEssst) for Adafruit_GFX::writeFastHLine(short, short, short, unsigned short)
    adafruit_ssd1675b.o(.constdata__ZTV17Adafruit_SSD1675B) refers to adafruit_gfx.o(i._ZN12Adafruit_GFX9writeLineEsssst) for Adafruit_GFX::writeLine(short, short, short, short, unsigned short)
    adafruit_ssd1675b.o(.constdata__ZTV17Adafruit_SSD1675B) refers to adafruit_gfx.o(i._ZN12Adafruit_GFX8endWriteEv) for Adafruit_GFX::endWrite()
    adafruit_ssd1675b.o(.constdata__ZTV17Adafruit_SSD1675B) refers to adafruit_gfx.o(i._ZN12Adafruit_GFX11setRotationEh) for Adafruit_GFX::setRotation(unsigned char)
    adafruit_ssd1675b.o(.constdata__ZTV17Adafruit_SSD1675B) refers to adafruit_gfx.o(i._ZN12Adafruit_GFX13invertDisplayEb) for Adafruit_GFX::invertDisplay(bool)
    adafruit_ssd1675b.o(.constdata__ZTV17Adafruit_SSD1675B) refers to adafruit_gfx.o(i._ZN12Adafruit_GFX13drawFastVLineEssst) for Adafruit_GFX::drawFastVLine(short, short, short, unsigned short)
    adafruit_ssd1675b.o(.constdata__ZTV17Adafruit_SSD1675B) refers to adafruit_gfx.o(i._ZN12Adafruit_GFX13drawFastHLineEssst) for Adafruit_GFX::drawFastHLine(short, short, short, unsigned short)
    adafruit_ssd1675b.o(.constdata__ZTV17Adafruit_SSD1675B) refers to adafruit_gfx.o(i._ZN12Adafruit_GFX8fillRectEsssst) for Adafruit_GFX::fillRect(short, short, short, short, unsigned short)
    adafruit_ssd1675b.o(.constdata__ZTV17Adafruit_SSD1675B) refers to adafruit_gfx.o(i._ZN12Adafruit_GFX10fillScreenEt) for Adafruit_GFX::fillScreen(unsigned short)
    adafruit_ssd1675b.o(.constdata__ZTV17Adafruit_SSD1675B) refers to adafruit_gfx.o(i._ZN12Adafruit_GFX8drawLineEsssst) for Adafruit_GFX::drawLine(short, short, short, short, unsigned short)
    adafruit_ssd1675b.o(.constdata__ZTV17Adafruit_SSD1675B) refers to adafruit_gfx.o(i._ZN12Adafruit_GFX8drawRectEsssst) for Adafruit_GFX::drawRect(short, short, short, short, unsigned short)
    adafruit_ssd1675b.o(.constdata__ZTV17Adafruit_SSD1675B) refers to adafruit_gfx.o(i._ZN12Adafruit_GFX5writeEh) for Adafruit_GFX::write(unsigned char)
    adafruit_ssd1675b.o(.constdata__ZTV17Adafruit_SSD1675B) refers to adafruit_ssd1675b.o(i._ZN17Adafruit_SSD1675B15writeRAMCommandEh) for Adafruit_SSD1675B::writeRAMCommand(unsigned char)
    adafruit_ssd1675b.o(.constdata__ZTV17Adafruit_SSD1675B) refers to adafruit_ssd1675b.o(i._ZN17Adafruit_SSD1675B13setRAMAddressEtt) for Adafruit_SSD1675B::setRAMAddress(unsigned short, unsigned short)
    adafruit_ssd1675b.o(.constdata__ZTV17Adafruit_SSD1675B) refers to adafruit_ssd1675b.o(i._ZN17Adafruit_SSD1675B9busy_waitEv) for Adafruit_SSD1675B::busy_wait()
    adafruit_ssd1675b.o(.constdata__ZTV17Adafruit_SSD1675B) refers to adafruit_ssd1675b.o(i._ZN17Adafruit_SSD1675B7powerUpEv) for Adafruit_SSD1675B::powerUp()
    adafruit_ssd1675b.o(.constdata__ZTV17Adafruit_SSD1675B) refers to adafruit_ssd1675b.o(i._ZN17Adafruit_SSD1675B6updateEv) for Adafruit_SSD1675B::update()
    adafruit_ssd1675b.o(.constdata__ZTV17Adafruit_SSD1675B) refers to adafruit_ssd1675b.o(i._ZN17Adafruit_SSD1675B9powerDownEv) for Adafruit_SSD1675B::powerDown()
    adafruit_ssd1675b.o(.constdata__ZTI17Adafruit_SSD1675B) refers to lib_rtti_impl.o(.constdata__ZTVN10__cxxabiv120__si_class_type_infoE) for vtable for __cxxabiv1::__si_class_type_info
    adafruit_ssd1675b.o(.constdata__ZTI17Adafruit_SSD1675B) refers to adafruit_ssd1675b.o(.constdata__ZTS17Adafruit_SSD1675B) for typeinfo name for Adafruit_SSD1675B
    adafruit_ssd1675b.o(.constdata__ZTI17Adafruit_SSD1675B) refers to adafruit_epd.o(.constdata__ZTI12Adafruit_EPD) for typeinfo for Adafruit_EPD
    adafruit_ssd1680.o(.constdata__ZTV16Adafruit_SSD1680) refers to adafruit_ssd1680.o(.constdata__ZTI16Adafruit_SSD1680) for typeinfo for Adafruit_SSD1680
    adafruit_ssd1680.o(.constdata__ZTV16Adafruit_SSD1680) refers to adafruit_epd.o(i._ZN12Adafruit_EPD9drawPixelEsst) for Adafruit_EPD::drawPixel(short, short, unsigned short)
    adafruit_ssd1680.o(.constdata__ZTV16Adafruit_SSD1680) refers to adafruit_gfx.o(i._ZN12Adafruit_GFX10startWriteEv) for Adafruit_GFX::startWrite()
    adafruit_ssd1680.o(.constdata__ZTV16Adafruit_SSD1680) refers to adafruit_gfx.o(i._ZN12Adafruit_GFX10writePixelEsst) for Adafruit_GFX::writePixel(short, short, unsigned short)
    adafruit_ssd1680.o(.constdata__ZTV16Adafruit_SSD1680) refers to adafruit_gfx.o(i._ZN12Adafruit_GFX13writeFillRectEsssst) for Adafruit_GFX::writeFillRect(short, short, short, short, unsigned short)
    adafruit_ssd1680.o(.constdata__ZTV16Adafruit_SSD1680) refers to adafruit_gfx.o(i._ZN12Adafruit_GFX14writeFastVLineEssst) for Adafruit_GFX::writeFastVLine(short, short, short, unsigned short)
    adafruit_ssd1680.o(.constdata__ZTV16Adafruit_SSD1680) refers to adafruit_gfx.o(i._ZN12Adafruit_GFX14writeFastHLineEssst) for Adafruit_GFX::writeFastHLine(short, short, short, unsigned short)
    adafruit_ssd1680.o(.constdata__ZTV16Adafruit_SSD1680) refers to adafruit_gfx.o(i._ZN12Adafruit_GFX9writeLineEsssst) for Adafruit_GFX::writeLine(short, short, short, short, unsigned short)
    adafruit_ssd1680.o(.constdata__ZTV16Adafruit_SSD1680) refers to adafruit_gfx.o(i._ZN12Adafruit_GFX8endWriteEv) for Adafruit_GFX::endWrite()
    adafruit_ssd1680.o(.constdata__ZTV16Adafruit_SSD1680) refers to adafruit_gfx.o(i._ZN12Adafruit_GFX11setRotationEh) for Adafruit_GFX::setRotation(unsigned char)
    adafruit_ssd1680.o(.constdata__ZTV16Adafruit_SSD1680) refers to adafruit_gfx.o(i._ZN12Adafruit_GFX13invertDisplayEb) for Adafruit_GFX::invertDisplay(bool)
    adafruit_ssd1680.o(.constdata__ZTV16Adafruit_SSD1680) refers to adafruit_gfx.o(i._ZN12Adafruit_GFX13drawFastVLineEssst) for Adafruit_GFX::drawFastVLine(short, short, short, unsigned short)
    adafruit_ssd1680.o(.constdata__ZTV16Adafruit_SSD1680) refers to adafruit_gfx.o(i._ZN12Adafruit_GFX13drawFastHLineEssst) for Adafruit_GFX::drawFastHLine(short, short, short, unsigned short)
    adafruit_ssd1680.o(.constdata__ZTV16Adafruit_SSD1680) refers to adafruit_gfx.o(i._ZN12Adafruit_GFX8fillRectEsssst) for Adafruit_GFX::fillRect(short, short, short, short, unsigned short)
    adafruit_ssd1680.o(.constdata__ZTV16Adafruit_SSD1680) refers to adafruit_gfx.o(i._ZN12Adafruit_GFX10fillScreenEt) for Adafruit_GFX::fillScreen(unsigned short)
    adafruit_ssd1680.o(.constdata__ZTV16Adafruit_SSD1680) refers to adafruit_gfx.o(i._ZN12Adafruit_GFX8drawLineEsssst) for Adafruit_GFX::drawLine(short, short, short, short, unsigned short)
    adafruit_ssd1680.o(.constdata__ZTV16Adafruit_SSD1680) refers to adafruit_gfx.o(i._ZN12Adafruit_GFX8drawRectEsssst) for Adafruit_GFX::drawRect(short, short, short, short, unsigned short)
    adafruit_ssd1680.o(.constdata__ZTV16Adafruit_SSD1680) refers to adafruit_gfx.o(i._ZN12Adafruit_GFX5writeEh) for Adafruit_GFX::write(unsigned char)
    adafruit_ssd1680.o(.constdata__ZTV16Adafruit_SSD1680) refers to adafruit_ssd1680.o(i._ZN16Adafruit_SSD168015writeRAMCommandEh) for Adafruit_SSD1680::writeRAMCommand(unsigned char)
    adafruit_ssd1680.o(.constdata__ZTV16Adafruit_SSD1680) refers to adafruit_ssd1680.o(i._ZN16Adafruit_SSD168013setRAMAddressEtt) for Adafruit_SSD1680::setRAMAddress(unsigned short, unsigned short)
    adafruit_ssd1680.o(.constdata__ZTV16Adafruit_SSD1680) refers to adafruit_ssd1680.o(i._ZN16Adafruit_SSD16809busy_waitEv) for Adafruit_SSD1680::busy_wait()
    adafruit_ssd1680.o(.constdata__ZTV16Adafruit_SSD1680) refers to adafruit_ssd1680.o(i._ZN16Adafruit_SSD16807powerUpEv) for Adafruit_SSD1680::powerUp()
    adafruit_ssd1680.o(.constdata__ZTV16Adafruit_SSD1680) refers to adafruit_ssd1680.o(i._ZN16Adafruit_SSD16806updateEv) for Adafruit_SSD1680::update()
    adafruit_ssd1680.o(.constdata__ZTV16Adafruit_SSD1680) refers to adafruit_ssd1680.o(i._ZN16Adafruit_SSD16809powerDownEv) for Adafruit_SSD1680::powerDown()
    adafruit_ssd1680.o(.constdata__ZTI16Adafruit_SSD1680) refers to lib_rtti_impl.o(.constdata__ZTVN10__cxxabiv120__si_class_type_infoE) for vtable for __cxxabiv1::__si_class_type_info
    adafruit_ssd1680.o(.constdata__ZTI16Adafruit_SSD1680) refers to adafruit_ssd1680.o(.constdata__ZTS16Adafruit_SSD1680) for typeinfo name for Adafruit_SSD1680
    adafruit_ssd1680.o(.constdata__ZTI16Adafruit_SSD1680) refers to adafruit_epd.o(.constdata__ZTI12Adafruit_EPD) for typeinfo for Adafruit_EPD
    adafruit_ssd1681.o(.constdata__ZTV16Adafruit_SSD1681) refers to adafruit_ssd1681.o(.constdata__ZTI16Adafruit_SSD1681) for typeinfo for Adafruit_SSD1681
    adafruit_ssd1681.o(.constdata__ZTV16Adafruit_SSD1681) refers to adafruit_epd.o(i._ZN12Adafruit_EPD9drawPixelEsst) for Adafruit_EPD::drawPixel(short, short, unsigned short)
    adafruit_ssd1681.o(.constdata__ZTV16Adafruit_SSD1681) refers to adafruit_gfx.o(i._ZN12Adafruit_GFX10startWriteEv) for Adafruit_GFX::startWrite()
    adafruit_ssd1681.o(.constdata__ZTV16Adafruit_SSD1681) refers to adafruit_gfx.o(i._ZN12Adafruit_GFX10writePixelEsst) for Adafruit_GFX::writePixel(short, short, unsigned short)
    adafruit_ssd1681.o(.constdata__ZTV16Adafruit_SSD1681) refers to adafruit_gfx.o(i._ZN12Adafruit_GFX13writeFillRectEsssst) for Adafruit_GFX::writeFillRect(short, short, short, short, unsigned short)
    adafruit_ssd1681.o(.constdata__ZTV16Adafruit_SSD1681) refers to adafruit_gfx.o(i._ZN12Adafruit_GFX14writeFastVLineEssst) for Adafruit_GFX::writeFastVLine(short, short, short, unsigned short)
    adafruit_ssd1681.o(.constdata__ZTV16Adafruit_SSD1681) refers to adafruit_gfx.o(i._ZN12Adafruit_GFX14writeFastHLineEssst) for Adafruit_GFX::writeFastHLine(short, short, short, unsigned short)
    adafruit_ssd1681.o(.constdata__ZTV16Adafruit_SSD1681) refers to adafruit_gfx.o(i._ZN12Adafruit_GFX9writeLineEsssst) for Adafruit_GFX::writeLine(short, short, short, short, unsigned short)
    adafruit_ssd1681.o(.constdata__ZTV16Adafruit_SSD1681) refers to adafruit_gfx.o(i._ZN12Adafruit_GFX8endWriteEv) for Adafruit_GFX::endWrite()
    adafruit_ssd1681.o(.constdata__ZTV16Adafruit_SSD1681) refers to adafruit_gfx.o(i._ZN12Adafruit_GFX11setRotationEh) for Adafruit_GFX::setRotation(unsigned char)
    adafruit_ssd1681.o(.constdata__ZTV16Adafruit_SSD1681) refers to adafruit_gfx.o(i._ZN12Adafruit_GFX13invertDisplayEb) for Adafruit_GFX::invertDisplay(bool)
    adafruit_ssd1681.o(.constdata__ZTV16Adafruit_SSD1681) refers to adafruit_gfx.o(i._ZN12Adafruit_GFX13drawFastVLineEssst) for Adafruit_GFX::drawFastVLine(short, short, short, unsigned short)
    adafruit_ssd1681.o(.constdata__ZTV16Adafruit_SSD1681) refers to adafruit_gfx.o(i._ZN12Adafruit_GFX13drawFastHLineEssst) for Adafruit_GFX::drawFastHLine(short, short, short, unsigned short)
    adafruit_ssd1681.o(.constdata__ZTV16Adafruit_SSD1681) refers to adafruit_gfx.o(i._ZN12Adafruit_GFX8fillRectEsssst) for Adafruit_GFX::fillRect(short, short, short, short, unsigned short)
    adafruit_ssd1681.o(.constdata__ZTV16Adafruit_SSD1681) refers to adafruit_gfx.o(i._ZN12Adafruit_GFX10fillScreenEt) for Adafruit_GFX::fillScreen(unsigned short)
    adafruit_ssd1681.o(.constdata__ZTV16Adafruit_SSD1681) refers to adafruit_gfx.o(i._ZN12Adafruit_GFX8drawLineEsssst) for Adafruit_GFX::drawLine(short, short, short, short, unsigned short)
    adafruit_ssd1681.o(.constdata__ZTV16Adafruit_SSD1681) refers to adafruit_gfx.o(i._ZN12Adafruit_GFX8drawRectEsssst) for Adafruit_GFX::drawRect(short, short, short, short, unsigned short)
    adafruit_ssd1681.o(.constdata__ZTV16Adafruit_SSD1681) refers to adafruit_gfx.o(i._ZN12Adafruit_GFX5writeEh) for Adafruit_GFX::write(unsigned char)
    adafruit_ssd1681.o(.constdata__ZTV16Adafruit_SSD1681) refers to adafruit_ssd1681.o(i._ZN16Adafruit_SSD168115writeRAMCommandEh) for Adafruit_SSD1681::writeRAMCommand(unsigned char)
    adafruit_ssd1681.o(.constdata__ZTV16Adafruit_SSD1681) refers to adafruit_ssd1681.o(i._ZN16Adafruit_SSD168113setRAMAddressEtt) for Adafruit_SSD1681::setRAMAddress(unsigned short, unsigned short)
    adafruit_ssd1681.o(.constdata__ZTV16Adafruit_SSD1681) refers to adafruit_ssd1681.o(i._ZN16Adafruit_SSD16819busy_waitEv) for Adafruit_SSD1681::busy_wait()
    adafruit_ssd1681.o(.constdata__ZTV16Adafruit_SSD1681) refers to adafruit_ssd1681.o(i._ZN16Adafruit_SSD16817powerUpEv) for Adafruit_SSD1681::powerUp()
    adafruit_ssd1681.o(.constdata__ZTV16Adafruit_SSD1681) refers to adafruit_ssd1681.o(i._ZN16Adafruit_SSD16816updateEv) for Adafruit_SSD1681::update()
    adafruit_ssd1681.o(.constdata__ZTV16Adafruit_SSD1681) refers to adafruit_ssd1681.o(i._ZN16Adafruit_SSD16819powerDownEv) for Adafruit_SSD1681::powerDown()
    adafruit_ssd1681.o(.constdata__ZTI16Adafruit_SSD1681) refers to lib_rtti_impl.o(.constdata__ZTVN10__cxxabiv120__si_class_type_infoE) for vtable for __cxxabiv1::__si_class_type_info
    adafruit_ssd1681.o(.constdata__ZTI16Adafruit_SSD1681) refers to adafruit_ssd1681.o(.constdata__ZTS16Adafruit_SSD1681) for typeinfo name for Adafruit_SSD1681
    adafruit_ssd1681.o(.constdata__ZTI16Adafruit_SSD1681) refers to adafruit_epd.o(.constdata__ZTI12Adafruit_EPD) for typeinfo for Adafruit_EPD
    lib_rtti_impl.o(.constdata__ZTVN10__cxxabiv123__fundamental_type_infoE) refers to lib_rtti_impl.o(.constdata__ZTIN10__cxxabiv123__fundamental_type_infoE) for typeinfo for __cxxabiv1::__fundamental_type_info
    lib_rtti_impl.o(.constdata__ZTVN10__cxxabiv123__fundamental_type_infoE) refers to lib_rtti_impl.o(i._ZN10__cxxabiv123__fundamental_type_infoD1Ev) for __cxxabiv1::__fundamental_type_info::~__fundamental_type_info()
    lib_rtti_impl.o(.constdata__ZTVN10__cxxabiv123__fundamental_type_infoE) refers to lib_rtti_impl.o(i._ZN10__cxxabiv123__fundamental_type_infoD0Ev) for __cxxabiv1::__fundamental_type_info::~__fundamental_type_info__deallocating()
    lib_rtti_impl.o(.constdata__ZTVN10__cxxabiv117__array_type_infoE) refers to lib_rtti_impl.o(.constdata__ZTIN10__cxxabiv117__array_type_infoE) for typeinfo for __cxxabiv1::__array_type_info
    lib_rtti_impl.o(.constdata__ZTVN10__cxxabiv117__array_type_infoE) refers to lib_rtti_impl.o(i._ZN10__cxxabiv117__array_type_infoD1Ev) for __cxxabiv1::__array_type_info::~__array_type_info()
    lib_rtti_impl.o(.constdata__ZTVN10__cxxabiv117__array_type_infoE) refers to lib_rtti_impl.o(i._ZN10__cxxabiv117__array_type_infoD0Ev) for __cxxabiv1::__array_type_info::~__array_type_info__deallocating()
    lib_rtti_impl.o(.constdata__ZTVN10__cxxabiv120__function_type_infoE) refers to lib_rtti_impl.o(.constdata__ZTIN10__cxxabiv120__function_type_infoE) for typeinfo for __cxxabiv1::__function_type_info
    lib_rtti_impl.o(.constdata__ZTVN10__cxxabiv120__function_type_infoE) refers to lib_rtti_impl.o(i._ZN10__cxxabiv120__function_type_infoD1Ev) for __cxxabiv1::__function_type_info::~__function_type_info()
    lib_rtti_impl.o(.constdata__ZTVN10__cxxabiv120__function_type_infoE) refers to lib_rtti_impl.o(i._ZN10__cxxabiv120__function_type_infoD0Ev) for __cxxabiv1::__function_type_info::~__function_type_info__deallocating()
    lib_rtti_impl.o(.constdata__ZTVN10__cxxabiv116__enum_type_infoE) refers to lib_rtti_impl.o(.constdata__ZTIN10__cxxabiv116__enum_type_infoE) for typeinfo for __cxxabiv1::__enum_type_info
    lib_rtti_impl.o(.constdata__ZTVN10__cxxabiv116__enum_type_infoE) refers to lib_rtti_impl.o(i._ZN10__cxxabiv116__enum_type_infoD1Ev) for __cxxabiv1::__enum_type_info::~__enum_type_info()
    lib_rtti_impl.o(.constdata__ZTVN10__cxxabiv116__enum_type_infoE) refers to lib_rtti_impl.o(i._ZN10__cxxabiv116__enum_type_infoD0Ev) for __cxxabiv1::__enum_type_info::~__enum_type_info__deallocating()
    lib_rtti_impl.o(.constdata__ZTVN10__cxxabiv117__class_type_infoE) refers to lib_rtti_impl.o(.constdata__ZTIN10__cxxabiv117__class_type_infoE) for typeinfo for __cxxabiv1::__class_type_info
    lib_rtti_impl.o(.constdata__ZTVN10__cxxabiv117__class_type_infoE) refers to lib_rtti_impl.o(i._ZN10__cxxabiv117__class_type_infoD1Ev) for __cxxabiv1::__class_type_info::~__class_type_info()
    lib_rtti_impl.o(.constdata__ZTVN10__cxxabiv117__class_type_infoE) refers to lib_rtti_impl.o(i._ZN10__cxxabiv117__class_type_infoD0Ev) for __cxxabiv1::__class_type_info::~__class_type_info__deallocating()
    lib_rtti_impl.o(.constdata__ZTVN10__cxxabiv120__si_class_type_infoE) refers to lib_rtti_impl.o(.constdata__ZTIN10__cxxabiv120__si_class_type_infoE) for typeinfo for __cxxabiv1::__si_class_type_info
    lib_rtti_impl.o(.constdata__ZTVN10__cxxabiv120__si_class_type_infoE) refers to lib_rtti_impl.o(i._ZN10__cxxabiv120__si_class_type_infoD1Ev) for __cxxabiv1::__si_class_type_info::~__si_class_type_info()
    lib_rtti_impl.o(.constdata__ZTVN10__cxxabiv120__si_class_type_infoE) refers to lib_rtti_impl.o(i._ZN10__cxxabiv120__si_class_type_infoD0Ev) for __cxxabiv1::__si_class_type_info::~__si_class_type_info__deallocating()
    lib_rtti_impl.o(.constdata__ZTVN10__cxxabiv121__vmi_class_type_infoE) refers to lib_rtti_impl.o(.constdata__ZTIN10__cxxabiv121__vmi_class_type_infoE) for typeinfo for __cxxabiv1::__vmi_class_type_info
    lib_rtti_impl.o(.constdata__ZTVN10__cxxabiv121__vmi_class_type_infoE) refers to lib_rtti_impl.o(i._ZN10__cxxabiv121__vmi_class_type_infoD1Ev) for __cxxabiv1::__vmi_class_type_info::~__vmi_class_type_info()
    lib_rtti_impl.o(.constdata__ZTVN10__cxxabiv121__vmi_class_type_infoE) refers to lib_rtti_impl.o(i._ZN10__cxxabiv121__vmi_class_type_infoD0Ev) for __cxxabiv1::__vmi_class_type_info::~__vmi_class_type_info__deallocating()
    lib_rtti_impl.o(.constdata__ZTVN10__cxxabiv117__pbase_type_infoE) refers to lib_rtti_impl.o(.constdata__ZTIN10__cxxabiv117__pbase_type_infoE) for typeinfo for __cxxabiv1::__pbase_type_info
    lib_rtti_impl.o(.constdata__ZTVN10__cxxabiv117__pbase_type_infoE) refers to lib_rtti_impl.o(i._ZN10__cxxabiv117__pbase_type_infoD1Ev) for __cxxabiv1::__pbase_type_info::~__pbase_type_info()
    lib_rtti_impl.o(.constdata__ZTVN10__cxxabiv117__pbase_type_infoE) refers to lib_rtti_impl.o(i._ZN10__cxxabiv117__pbase_type_infoD0Ev) for __cxxabiv1::__pbase_type_info::~__pbase_type_info__deallocating()
    lib_rtti_impl.o(.constdata__ZTVN10__cxxabiv119__pointer_type_infoE) refers to lib_rtti_impl.o(.constdata__ZTIN10__cxxabiv119__pointer_type_infoE) for typeinfo for __cxxabiv1::__pointer_type_info
    lib_rtti_impl.o(.constdata__ZTVN10__cxxabiv119__pointer_type_infoE) refers to lib_rtti_impl.o(i._ZN10__cxxabiv119__pointer_type_infoD1Ev) for __cxxabiv1::__pointer_type_info::~__pointer_type_info()
    lib_rtti_impl.o(.constdata__ZTVN10__cxxabiv119__pointer_type_infoE) refers to lib_rtti_impl.o(i._ZN10__cxxabiv119__pointer_type_infoD0Ev) for __cxxabiv1::__pointer_type_info::~__pointer_type_info__deallocating()
    lib_rtti_impl.o(.constdata__ZTVN10__cxxabiv129__pointer_to_member_type_infoE) refers to lib_rtti_impl.o(.constdata__ZTIN10__cxxabiv129__pointer_to_member_type_infoE) for typeinfo for __cxxabiv1::__pointer_to_member_type_info
    lib_rtti_impl.o(.constdata__ZTVN10__cxxabiv129__pointer_to_member_type_infoE) refers to lib_rtti_impl.o(i._ZN10__cxxabiv129__pointer_to_member_type_infoD1Ev) for __cxxabiv1::__pointer_to_member_type_info::~__pointer_to_member_type_info()
    lib_rtti_impl.o(.constdata__ZTVN10__cxxabiv129__pointer_to_member_type_infoE) refers to lib_rtti_impl.o(i._ZN10__cxxabiv129__pointer_to_member_type_infoD0Ev) for __cxxabiv1::__pointer_to_member_type_info::~__pointer_to_member_type_info__deallocating()
    lib_rtti_impl.o(.ARM.exidx) refers to lib_rtti_impl.o(i._ZNSt9type_infodlEPv) for i._ZNSt9type_infodlEPv
    lib_rtti_impl.o(.constdata__ZTIN10__cxxabiv123__fundamental_type_infoE) refers to lib_rtti_impl.o(.constdata__ZTVN10__cxxabiv120__si_class_type_infoE) for vtable for __cxxabiv1::__si_class_type_info
    lib_rtti_impl.o(.constdata__ZTIN10__cxxabiv123__fundamental_type_infoE) refers to lib_rtti_impl.o(.constdata__ZTSN10__cxxabiv123__fundamental_type_infoE) for typeinfo name for __cxxabiv1::__fundamental_type_info
    lib_rtti_impl.o(.constdata__ZTIN10__cxxabiv123__fundamental_type_infoE) refers to type_info_dtor.o(.constdata__ZTISt9type_info) for typeinfo for std::type_info
    lib_rtti_impl.o(.constdata__ZTIN10__cxxabiv117__array_type_infoE) refers to lib_rtti_impl.o(.constdata__ZTVN10__cxxabiv120__si_class_type_infoE) for vtable for __cxxabiv1::__si_class_type_info
    lib_rtti_impl.o(.constdata__ZTIN10__cxxabiv117__array_type_infoE) refers to lib_rtti_impl.o(.constdata__ZTSN10__cxxabiv117__array_type_infoE) for typeinfo name for __cxxabiv1::__array_type_info
    lib_rtti_impl.o(.constdata__ZTIN10__cxxabiv117__array_type_infoE) refers to type_info_dtor.o(.constdata__ZTISt9type_info) for typeinfo for std::type_info
    lib_rtti_impl.o(.constdata__ZTIN10__cxxabiv120__function_type_infoE) refers to lib_rtti_impl.o(.constdata__ZTVN10__cxxabiv120__si_class_type_infoE) for vtable for __cxxabiv1::__si_class_type_info
    lib_rtti_impl.o(.constdata__ZTIN10__cxxabiv120__function_type_infoE) refers to lib_rtti_impl.o(.constdata__ZTSN10__cxxabiv120__function_type_infoE) for typeinfo name for __cxxabiv1::__function_type_info
    lib_rtti_impl.o(.constdata__ZTIN10__cxxabiv120__function_type_infoE) refers to type_info_dtor.o(.constdata__ZTISt9type_info) for typeinfo for std::type_info
    lib_rtti_impl.o(.constdata__ZTIN10__cxxabiv116__enum_type_infoE) refers to lib_rtti_impl.o(.constdata__ZTVN10__cxxabiv120__si_class_type_infoE) for vtable for __cxxabiv1::__si_class_type_info
    lib_rtti_impl.o(.constdata__ZTIN10__cxxabiv116__enum_type_infoE) refers to lib_rtti_impl.o(.constdata__ZTSN10__cxxabiv116__enum_type_infoE) for typeinfo name for __cxxabiv1::__enum_type_info
    lib_rtti_impl.o(.constdata__ZTIN10__cxxabiv116__enum_type_infoE) refers to type_info_dtor.o(.constdata__ZTISt9type_info) for typeinfo for std::type_info
    lib_rtti_impl.o(.constdata__ZTIN10__cxxabiv117__class_type_infoE) refers to lib_rtti_impl.o(.constdata__ZTVN10__cxxabiv120__si_class_type_infoE) for vtable for __cxxabiv1::__si_class_type_info
    lib_rtti_impl.o(.constdata__ZTIN10__cxxabiv117__class_type_infoE) refers to lib_rtti_impl.o(.constdata__ZTSN10__cxxabiv117__class_type_infoE) for typeinfo name for __cxxabiv1::__class_type_info
    lib_rtti_impl.o(.constdata__ZTIN10__cxxabiv117__class_type_infoE) refers to type_info_dtor.o(.constdata__ZTISt9type_info) for typeinfo for std::type_info
    lib_rtti_impl.o(.constdata__ZTIN10__cxxabiv120__si_class_type_infoE) refers to lib_rtti_impl.o(.constdata__ZTVN10__cxxabiv120__si_class_type_infoE) for vtable for __cxxabiv1::__si_class_type_info
    lib_rtti_impl.o(.constdata__ZTIN10__cxxabiv120__si_class_type_infoE) refers to lib_rtti_impl.o(.constdata__ZTSN10__cxxabiv120__si_class_type_infoE) for typeinfo name for __cxxabiv1::__si_class_type_info
    lib_rtti_impl.o(.constdata__ZTIN10__cxxabiv120__si_class_type_infoE) refers to lib_rtti_impl.o(.constdata__ZTIN10__cxxabiv117__class_type_infoE) for typeinfo for __cxxabiv1::__class_type_info
    lib_rtti_impl.o(.constdata__ZTIN10__cxxabiv121__vmi_class_type_infoE) refers to lib_rtti_impl.o(.constdata__ZTVN10__cxxabiv120__si_class_type_infoE) for vtable for __cxxabiv1::__si_class_type_info
    lib_rtti_impl.o(.constdata__ZTIN10__cxxabiv121__vmi_class_type_infoE) refers to lib_rtti_impl.o(.constdata__ZTSN10__cxxabiv121__vmi_class_type_infoE) for typeinfo name for __cxxabiv1::__vmi_class_type_info
    lib_rtti_impl.o(.constdata__ZTIN10__cxxabiv121__vmi_class_type_infoE) refers to lib_rtti_impl.o(.constdata__ZTIN10__cxxabiv117__class_type_infoE) for typeinfo for __cxxabiv1::__class_type_info
    lib_rtti_impl.o(.constdata__ZTIN10__cxxabiv117__pbase_type_infoE) refers to lib_rtti_impl.o(.constdata__ZTVN10__cxxabiv120__si_class_type_infoE) for vtable for __cxxabiv1::__si_class_type_info
    lib_rtti_impl.o(.constdata__ZTIN10__cxxabiv117__pbase_type_infoE) refers to lib_rtti_impl.o(.constdata__ZTSN10__cxxabiv117__pbase_type_infoE) for typeinfo name for __cxxabiv1::__pbase_type_info
    lib_rtti_impl.o(.constdata__ZTIN10__cxxabiv117__pbase_type_infoE) refers to type_info_dtor.o(.constdata__ZTISt9type_info) for typeinfo for std::type_info
    lib_rtti_impl.o(.constdata__ZTIN10__cxxabiv119__pointer_type_infoE) refers to lib_rtti_impl.o(.constdata__ZTVN10__cxxabiv120__si_class_type_infoE) for vtable for __cxxabiv1::__si_class_type_info
    lib_rtti_impl.o(.constdata__ZTIN10__cxxabiv119__pointer_type_infoE) refers to lib_rtti_impl.o(.constdata__ZTSN10__cxxabiv119__pointer_type_infoE) for typeinfo name for __cxxabiv1::__pointer_type_info
    lib_rtti_impl.o(.constdata__ZTIN10__cxxabiv119__pointer_type_infoE) refers to lib_rtti_impl.o(.constdata__ZTIN10__cxxabiv117__pbase_type_infoE) for typeinfo for __cxxabiv1::__pbase_type_info
    lib_rtti_impl.o(.constdata__ZTIN10__cxxabiv129__pointer_to_member_type_infoE) refers to lib_rtti_impl.o(.constdata__ZTVN10__cxxabiv120__si_class_type_infoE) for vtable for __cxxabiv1::__si_class_type_info
    lib_rtti_impl.o(.constdata__ZTIN10__cxxabiv129__pointer_to_member_type_infoE) refers to lib_rtti_impl.o(.constdata__ZTSN10__cxxabiv129__pointer_to_member_type_infoE) for typeinfo name for __cxxabiv1::__pointer_to_member_type_info
    lib_rtti_impl.o(.constdata__ZTIN10__cxxabiv129__pointer_to_member_type_infoE) refers to lib_rtti_impl.o(.constdata__ZTIN10__cxxabiv117__pbase_type_infoE) for typeinfo for __cxxabiv1::__pbase_type_info
    lib_rtti_impl.o(i.__ARM_common_noexcept_landing) refers to arm_exceptions_callterm.o(.text) for __cxa_call_terminate
    lib_rtti_impl.o(.ARM.exidx) refers to lib_rtti_impl.o(i.__ARM_common_noexcept_landing) for i.__ARM_common_noexcept_landing
    bad_alloc_dtor.o(.constdata__ZTVSt9bad_alloc) refers to bad_alloc_dtor.o(.constdata__ZTISt9bad_alloc) for typeinfo for std::bad_alloc
    bad_alloc_dtor.o(.constdata__ZTVSt9bad_alloc) refers to bad_alloc_dtor.o(i._ZNSt9bad_allocD1Ev) for std::bad_alloc::~bad_alloc()
    bad_alloc_dtor.o(.constdata__ZTVSt9bad_alloc) refers to bad_alloc_dtor.o(i._ZNSt9bad_allocD0Ev) for std::bad_alloc::~bad_alloc__deallocating()
    bad_alloc_dtor.o(.constdata__ZTVSt9bad_alloc) refers to bad_alloc_what.o(i._ZNKSt9bad_alloc4whatEv) for std::bad_alloc::what() const
    bad_alloc_dtor.o(.constdata__ZTISt9bad_alloc) refers to lib_rtti_impl.o(.constdata__ZTVN10__cxxabiv120__si_class_type_infoE) for vtable for __cxxabiv1::__si_class_type_info
    bad_alloc_dtor.o(.constdata__ZTISt9bad_alloc) refers to bad_alloc_dtor.o(.constdata__ZTSSt9bad_alloc) for typeinfo name for std::bad_alloc
    bad_alloc_dtor.o(.constdata__ZTISt9bad_alloc) refers to exception_dtor.o(.constdata__ZTISt9exception) for typeinfo for std::exception
    type_info_dtor.o(.constdata__ZTVSt9type_info) refers to type_info_dtor.o(.constdata__ZTISt9type_info) for typeinfo for std::type_info
    type_info_dtor.o(.constdata__ZTVSt9type_info) refers to type_info_dtor.o(i._ZNSt9type_infoD1Ev) for std::type_info::~type_info()
    type_info_dtor.o(.constdata__ZTVSt9type_info) refers to type_info_dtor.o(i._ZNSt9type_infoD0Ev) for std::type_info::~type_info__deallocating()
    type_info_dtor.o(.constdata__ZTISt9type_info) refers to lib_rtti_impl.o(.constdata__ZTVN10__cxxabiv117__class_type_infoE) for vtable for __cxxabiv1::__class_type_info
    type_info_dtor.o(.constdata__ZTISt9type_info) refers to type_info_dtor.o(.constdata__ZTSSt9type_info) for typeinfo name for std::type_info
    exception_dtor.o(.constdata__ZTVSt9exception) refers to exception_dtor.o(.constdata__ZTISt9exception) for typeinfo for std::exception
    exception_dtor.o(.constdata__ZTVSt9exception) refers to exception_dtor.o(i._ZNSt9exceptionD1Ev) for std::exception::~exception()
    exception_dtor.o(.constdata__ZTVSt9exception) refers to exception_dtor.o(i._ZNSt9exceptionD0Ev) for std::exception::~exception__deallocating()
    exception_dtor.o(.constdata__ZTVSt9exception) refers to exception_what.o(i._ZNKSt9exception4whatEv) for std::exception::what() const
    exception_dtor.o(.constdata__ZTISt9exception) refers to lib_rtti_impl.o(.constdata__ZTVN10__cxxabiv117__class_type_infoE) for vtable for __cxxabiv1::__class_type_info
    exception_dtor.o(.constdata__ZTISt9exception) refers to exception_dtor.o(.constdata__ZTSSt9exception) for typeinfo name for std::exception


==============================================================================

Removing Unused input sections from the image.

    Removing epdtest.o(.ARM.exidx), (8 bytes).
    Removing epdtest.o(.ARM.exidx), (8 bytes).
    Removing epdtest.o(.ARM.exidx), (8 bytes).
    Removing glcdfont.o(.constdata), (1280 bytes).
    Removing adafruit_epd.o(i._ZN12Adafruit_EPD12clearDisplayEv), (28 bytes).
    Removing adafruit_epd.o(i._ZN12Adafruit_EPD8EPD_dataEh), (40 bytes).
    Removing adafruit_epd.o(i._ZN12Adafruit_EPDC2Eiiaaaaaaaa), (196 bytes).
    Removing adafruit_epd.o(.ARM.exidx), (8 bytes).
    Removing adafruit_epd.o(.ARM.exidx), (8 bytes).
    Removing adafruit_epd.o(.ARM.exidx), (8 bytes).
    Removing adafruit_epd.o(.ARM.exidx), (8 bytes).
    Removing adafruit_epd.o(.ARM.exidx), (8 bytes).
    Removing adafruit_epd.o(.ARM.exidx), (8 bytes).
    Removing adafruit_epd.o(.ARM.exidx), (8 bytes).
    Removing adafruit_epd.o(.ARM.exidx), (8 bytes).
    Removing adafruit_epd.o(.ARM.exidx), (8 bytes).
    Removing adafruit_epd.o(.ARM.exidx), (8 bytes).
    Removing adafruit_epd.o(.ARM.exidx), (8 bytes).
    Removing adafruit_epd.o(.ARM.exidx), (8 bytes).
    Removing adafruit_epd.o(.ARM.exidx), (8 bytes).
    Removing adafruit_epd.o(.ARM.exidx), (8 bytes).
    Removing adafruit_epd.o(.ARM.exidx), (8 bytes).
    Removing adafruit_epd.o(.ARM.exidx), (8 bytes).
    Removing adafruit_epd.o(.ARM.exidx), (8 bytes).
    Removing adafruit_epd.o(.ARM.exidx), (8 bytes).
    Removing adafruit_epd.o(.ARM.exidx), (8 bytes).
    Removing adafruit_epd.o(.ARM.exidx), (8 bytes).
    Removing adafruit_epd.o(.ARM.exidx), (8 bytes).
    Removing adafruit_gfx.o(i._ZN10GFXcanvas110fillScreenEt), (54 bytes).
    Removing adafruit_gfx.o(i._ZN10GFXcanvas113drawFastHLineEssst), (276 bytes).
    Removing adafruit_gfx.o(i._ZN10GFXcanvas113drawFastVLineEssst), (276 bytes).
    Removing adafruit_gfx.o(i._ZN10GFXcanvas116drawFastRawHLineEssst), (206 bytes).
    Removing adafruit_gfx.o(i._ZN10GFXcanvas116drawFastRawVLineEssst), (132 bytes).
    Removing adafruit_gfx.o(i._ZN10GFXcanvas19drawPixelEsst), (192 bytes).
    Removing adafruit_gfx.o(i._ZN10GFXcanvas1C1Ett), (68 bytes).
    Removing adafruit_gfx.o(i._ZN10GFXcanvas1D1Ev), (28 bytes).
    Removing adafruit_gfx.o(i._ZN10GFXcanvas810fillScreenEt), (28 bytes).
    Removing adafruit_gfx.o(i._ZN10GFXcanvas813drawFastHLineEssst), (276 bytes).
    Removing adafruit_gfx.o(i._ZN10GFXcanvas813drawFastVLineEssst), (276 bytes).
    Removing adafruit_gfx.o(i._ZN10GFXcanvas816drawFastRawHLineEssst), (40 bytes).
    Removing adafruit_gfx.o(i._ZN10GFXcanvas816drawFastRawVLineEssst), (38 bytes).
    Removing adafruit_gfx.o(i._ZN10GFXcanvas89drawPixelEsst), (118 bytes).
    Removing adafruit_gfx.o(i._ZN10GFXcanvas8C1Ett), (60 bytes).
    Removing adafruit_gfx.o(i._ZN10GFXcanvas8D1Ev), (28 bytes).
    Removing adafruit_gfx.o(i._ZN11GFXcanvas1610fillScreenEt), (72 bytes).
    Removing adafruit_gfx.o(i._ZN11GFXcanvas1613drawFastHLineEssst), (276 bytes).
    Removing adafruit_gfx.o(i._ZN11GFXcanvas1613drawFastVLineEssst), (276 bytes).
    Removing adafruit_gfx.o(i._ZN11GFXcanvas1616drawFastRawHLineEssst), (36 bytes).
    Removing adafruit_gfx.o(i._ZN11GFXcanvas1616drawFastRawVLineEssst), (44 bytes).
    Removing adafruit_gfx.o(i._ZN11GFXcanvas168byteSwapEv), (52 bytes).
    Removing adafruit_gfx.o(i._ZN11GFXcanvas169drawPixelEsst), (118 bytes).
    Removing adafruit_gfx.o(i._ZN11GFXcanvas16C1Ett), (60 bytes).
    Removing adafruit_gfx.o(i._ZN11GFXcanvas16D1Ev), (28 bytes).
    Removing adafruit_gfx.o(i._ZN12Adafruit_GFX10charBoundsEhPsS0_S0_S0_S0_S0_), (526 bytes).
    Removing adafruit_gfx.o(i._ZN12Adafruit_GFX10drawBitmapEssPKhsst), (150 bytes).
    Removing adafruit_gfx.o(i._ZN12Adafruit_GFX10drawBitmapEssPKhsstt), (156 bytes).
    Removing adafruit_gfx.o(i._ZN12Adafruit_GFX10drawBitmapEssPhsst), (150 bytes).
    Removing adafruit_gfx.o(i._ZN12Adafruit_GFX10drawBitmapEssPhsstt), (156 bytes).
    Removing adafruit_gfx.o(i._ZN12Adafruit_GFX10drawCircleEssst), (372 bytes).
    Removing adafruit_gfx.o(i._ZN12Adafruit_GFX10fillCircleEssst), (80 bytes).
    Removing adafruit_gfx.o(i._ZN12Adafruit_GFX10fillScreenEt), (32 bytes).
    Removing adafruit_gfx.o(i._ZN12Adafruit_GFX11drawXBitmapEssPKhsst), (146 bytes).
    Removing adafruit_gfx.o(i._ZN12Adafruit_GFX11setRotationEh), (52 bytes).
    Removing adafruit_gfx.o(i._ZN12Adafruit_GFX11setTextSizeEh), (18 bytes).
    Removing adafruit_gfx.o(i._ZN12Adafruit_GFX11setTextSizeEhh), (26 bytes).
    Removing adafruit_gfx.o(i._ZN12Adafruit_GFX12drawTriangleEsssssst), (86 bytes).
    Removing adafruit_gfx.o(i._ZN12Adafruit_GFX12fillTriangleEsssssst), (464 bytes).
    Removing adafruit_gfx.o(i._ZN12Adafruit_GFX13drawRGBBitmapEssPKtPKhss), (156 bytes).
    Removing adafruit_gfx.o(i._ZN12Adafruit_GFX13drawRGBBitmapEssPKtss), (92 bytes).
    Removing adafruit_gfx.o(i._ZN12Adafruit_GFX13drawRGBBitmapEssPtPhss), (156 bytes).
    Removing adafruit_gfx.o(i._ZN12Adafruit_GFX13drawRGBBitmapEssPtss), (92 bytes).
    Removing adafruit_gfx.o(i._ZN12Adafruit_GFX13drawRoundRectEssssst), (306 bytes).
    Removing adafruit_gfx.o(i._ZN12Adafruit_GFX13fillRoundRectEssssst), (172 bytes).
    Removing adafruit_gfx.o(i._ZN12Adafruit_GFX13getTextBoundsEPKcssPsS2_PtS3_), (164 bytes).
    Removing adafruit_gfx.o(i._ZN12Adafruit_GFX13getTextBoundsERKSsssPsS2_PtS3_), (62 bytes).
    Removing adafruit_gfx.o(i._ZN12Adafruit_GFX13invertDisplayEb), (2 bytes).
    Removing adafruit_gfx.o(i._ZN12Adafruit_GFX13writeFillRectEsssst), (40 bytes).
    Removing adafruit_gfx.o(i._ZN12Adafruit_GFX14writeFastHLineEssst), (40 bytes).
    Removing adafruit_gfx.o(i._ZN12Adafruit_GFX14writeFastVLineEssst), (40 bytes).
    Removing adafruit_gfx.o(i._ZN12Adafruit_GFX16drawCircleHelperEsssht), (298 bytes).
    Removing adafruit_gfx.o(i._ZN12Adafruit_GFX16fillCircleHelperEssshst), (298 bytes).
    Removing adafruit_gfx.o(i._ZN12Adafruit_GFX19drawGrayscaleBitmapEssPKhS1_ss), (156 bytes).
    Removing adafruit_gfx.o(i._ZN12Adafruit_GFX19drawGrayscaleBitmapEssPKhss), (92 bytes).
    Removing adafruit_gfx.o(i._ZN12Adafruit_GFX19drawGrayscaleBitmapEssPhS0_ss), (156 bytes).
    Removing adafruit_gfx.o(i._ZN12Adafruit_GFX19drawGrayscaleBitmapEssPhss), (92 bytes).
    Removing adafruit_gfx.o(i._ZN12Adafruit_GFX5writeEh), (328 bytes).
    Removing adafruit_gfx.o(i._ZN12Adafruit_GFX7setFontEPK7GFXfont), (32 bytes).
    Removing adafruit_gfx.o(i._ZN12Adafruit_GFX8drawCharEsshtth), (44 bytes).
    Removing adafruit_gfx.o(i._ZN12Adafruit_GFX8drawCharEsshtthh), (664 bytes).
    Removing adafruit_gfx.o(i._ZN12Adafruit_GFX8drawRectEsssst), (120 bytes).
    Removing adafruit_gfx.o(i._ZN12Adafruit_GFX8fillRectEsssst), (70 bytes).
    Removing adafruit_gfx.o(i._ZN19Adafruit_GFX_Button10drawButtonEb), (232 bytes).
    Removing adafruit_gfx.o(i._ZN19Adafruit_GFX_Button10initButtonEP12Adafruit_GFXsstttttPch), (76 bytes).
    Removing adafruit_gfx.o(i._ZN19Adafruit_GFX_Button10initButtonEP12Adafruit_GFXsstttttPchh), (66 bytes).
    Removing adafruit_gfx.o(i._ZN19Adafruit_GFX_Button11justPressedEv), (18 bytes).
    Removing adafruit_gfx.o(i._ZN19Adafruit_GFX_Button12initButtonULEP12Adafruit_GFXsstttttPch), (48 bytes).
    Removing adafruit_gfx.o(i._ZN19Adafruit_GFX_Button12initButtonULEP12Adafruit_GFXsstttttPchh), (70 bytes).
    Removing adafruit_gfx.o(i._ZN19Adafruit_GFX_Button12justReleasedEv), (18 bytes).
    Removing adafruit_gfx.o(i._ZN19Adafruit_GFX_Button8containsEss), (52 bytes).
    Removing adafruit_gfx.o(i._ZN19Adafruit_GFX_ButtonC1Ev), (6 bytes).
    Removing adafruit_gfx.o(i._ZNK10GFXcanvas111getRawPixelEss), (116 bytes).
    Removing adafruit_gfx.o(i._ZNK10GFXcanvas18getPixelEss), (88 bytes).
    Removing adafruit_gfx.o(i._ZNK10GFXcanvas811getRawPixelEss), (54 bytes).
    Removing adafruit_gfx.o(i._ZNK10GFXcanvas88getPixelEss), (84 bytes).
    Removing adafruit_gfx.o(i._ZNK11GFXcanvas1611getRawPixelEss), (56 bytes).
    Removing adafruit_gfx.o(i._ZNK11GFXcanvas168getPixelEss), (84 bytes).
    Removing adafruit_gfx.o(.ARM.exidx), (8 bytes).
    Removing adafruit_gfx.o(.ARM.exidx), (8 bytes).
    Removing adafruit_gfx.o(.ARM.exidx), (8 bytes).
    Removing adafruit_gfx.o(.ARM.exidx), (8 bytes).
    Removing adafruit_gfx.o(.ARM.exidx), (8 bytes).
    Removing adafruit_gfx.o(.ARM.exidx), (8 bytes).
    Removing adafruit_gfx.o(.ARM.exidx), (8 bytes).
    Removing adafruit_gfx.o(.ARM.exidx), (8 bytes).
    Removing adafruit_gfx.o(.ARM.exidx), (8 bytes).
    Removing adafruit_gfx.o(.ARM.exidx), (8 bytes).
    Removing adafruit_gfx.o(.ARM.exidx), (8 bytes).
    Removing adafruit_gfx.o(.ARM.exidx), (8 bytes).
    Removing adafruit_gfx.o(.ARM.exidx), (8 bytes).
    Removing adafruit_gfx.o(.ARM.exidx), (8 bytes).
    Removing adafruit_gfx.o(.ARM.exidx), (8 bytes).
    Removing adafruit_gfx.o(.ARM.exidx), (8 bytes).
    Removing adafruit_gfx.o(.ARM.exidx), (8 bytes).
    Removing adafruit_gfx.o(.ARM.exidx), (8 bytes).
    Removing adafruit_gfx.o(.ARM.exidx), (8 bytes).
    Removing adafruit_gfx.o(.ARM.exidx), (8 bytes).
    Removing adafruit_gfx.o(.ARM.exidx), (8 bytes).
    Removing adafruit_gfx.o(.ARM.exidx), (8 bytes).
    Removing adafruit_gfx.o(.ARM.exidx), (8 bytes).
    Removing adafruit_gfx.o(.ARM.exidx), (8 bytes).
    Removing adafruit_gfx.o(.ARM.exidx), (8 bytes).
    Removing adafruit_gfx.o(.ARM.exidx), (8 bytes).
    Removing adafruit_gfx.o(.ARM.exidx), (8 bytes).
    Removing adafruit_gfx.o(.ARM.exidx), (8 bytes).
    Removing adafruit_gfx.o(.ARM.exidx), (8 bytes).
    Removing adafruit_gfx.o(.ARM.exidx), (8 bytes).
    Removing adafruit_gfx.o(.ARM.exidx), (8 bytes).
    Removing adafruit_gfx.o(.ARM.exidx), (8 bytes).
    Removing adafruit_gfx.o(.ARM.exidx), (8 bytes).
    Removing adafruit_gfx.o(.ARM.exidx), (8 bytes).
    Removing adafruit_gfx.o(.ARM.exidx), (8 bytes).
    Removing adafruit_gfx.o(.ARM.exidx), (8 bytes).
    Removing adafruit_gfx.o(.ARM.exidx), (8 bytes).
    Removing adafruit_gfx.o(.ARM.exidx), (8 bytes).
    Removing adafruit_gfx.o(.ARM.exidx), (8 bytes).
    Removing adafruit_gfx.o(.ARM.exidx), (8 bytes).
    Removing adafruit_gfx.o(.ARM.exidx), (8 bytes).
    Removing adafruit_gfx.o(.ARM.exidx), (8 bytes).
    Removing adafruit_gfx.o(.ARM.exidx), (8 bytes).
    Removing adafruit_gfx.o(.ARM.exidx), (8 bytes).
    Removing adafruit_gfx.o(.ARM.exidx), (8 bytes).
    Removing adafruit_gfx.o(.ARM.exidx), (8 bytes).
    Removing adafruit_gfx.o(.ARM.exidx), (8 bytes).
    Removing adafruit_gfx.o(.ARM.exidx), (8 bytes).
    Removing adafruit_gfx.o(.ARM.exidx), (8 bytes).
    Removing adafruit_gfx.o(.ARM.exidx), (8 bytes).
    Removing adafruit_gfx.o(.ARM.exidx), (8 bytes).
    Removing adafruit_gfx.o(.ARM.exidx), (8 bytes).
    Removing adafruit_gfx.o(.ARM.exidx), (8 bytes).
    Removing adafruit_gfx.o(.ARM.exidx), (8 bytes).
    Removing adafruit_gfx.o(.ARM.exidx), (8 bytes).
    Removing adafruit_gfx.o(.ARM.exidx), (8 bytes).
    Removing adafruit_gfx.o(.ARM.exidx), (8 bytes).
    Removing adafruit_gfx.o(.ARM.exidx), (8 bytes).
    Removing adafruit_gfx.o(.ARM.exidx), (8 bytes).
    Removing adafruit_gfx.o(.ARM.exidx), (8 bytes).
    Removing adafruit_gfx.o(.ARM.exidx), (8 bytes).
    Removing adafruit_gfx.o(.ARM.exidx), (8 bytes).
    Removing adafruit_gfx.o(.ARM.exidx), (8 bytes).
    Removing adafruit_gfx.o(.ARM.exidx), (8 bytes).
    Removing adafruit_gfx.o(.ARM.exidx), (8 bytes).
    Removing adafruit_gfx.o(.ARM.exidx), (8 bytes).
    Removing adafruit_gfx.o(.ARM.exidx), (8 bytes).
    Removing adafruit_gfx.o(.ARM.exidx), (8 bytes).
    Removing adafruit_gfx.o(.ARM.exidx), (8 bytes).
    Removing adafruit_gfx.o(.ARM.exidx), (8 bytes).
    Removing adafruit_gfx.o(.ARM.exidx), (8 bytes).
    Removing adafruit_gfx.o(.ARM.exidx), (8 bytes).
    Removing adafruit_gfx.o(.ARM.exidx), (8 bytes).
    Removing adafruit_gfx.o(.ARM.exidx), (8 bytes).
    Removing adafruit_gfx.o(.ARM.exidx), (8 bytes).
    Removing adafruit_gfx.o(.ARM.exidx), (8 bytes).
    Removing adafruit_gfx.o(.ARM.exidx), (8 bytes).
    Removing adafruit_gfx.o(.ARM.exidx), (8 bytes).
    Removing adafruit_gfx.o(.ARM.exidx), (8 bytes).
    Removing adafruit_gfx.o(.ARM.exidx), (8 bytes).
    Removing adafruit_gfx.o(.ARM.exidx), (8 bytes).
    Removing adafruit_gfx.o(.ARM.exidx), (8 bytes).
    Removing adafruit_gfx.o(.ARM.exidx), (8 bytes).
    Removing adafruit_gfx.o(.ARM.exidx), (8 bytes).
    Removing adafruit_gfx.o(.ARM.exidx), (8 bytes).
    Removing adafruit_gfx.o(.ARM.exidx), (8 bytes).
    Removing adafruit_gfx.o(.constdata), (1280 bytes).
    Removing adafruit_mcpsram.o(i._ZN16Adafruit_MCPSRAM6read16Et), (36 bytes).
    Removing adafruit_mcpsram.o(i._ZN16Adafruit_MCPSRAM7write16Ett), (38 bytes).
    Removing adafruit_mcpsram.o(i._ZN16Adafruit_MCPSRAMC1Eaaaa), (18 bytes).
    Removing adafruit_mcpsram.o(.ARM.exidx), (8 bytes).
    Removing adafruit_mcpsram.o(.ARM.exidx), (8 bytes).
    Removing adafruit_mcpsram.o(.ARM.exidx), (8 bytes).
    Removing adafruit_mcpsram.o(.ARM.exidx), (8 bytes).
    Removing adafruit_mcpsram.o(.ARM.exidx), (8 bytes).
    Removing adafruit_mcpsram.o(.ARM.exidx), (8 bytes).
    Removing adafruit_mcpsram.o(.ARM.exidx), (8 bytes).
    Removing adafruit_mcpsram.o(.ARM.exidx), (8 bytes).
    Removing adafruit_mcpsram.o(.ARM.exidx), (8 bytes).
    Removing adafruit_mcpsram.o(.ARM.exidx), (8 bytes).
    Removing adafruit_mcpsram.o(.ARM.exidx), (8 bytes).
    Removing adafruit_mcpsram.o(.ARM.exidx), (8 bytes).
    Removing adafruit_spitft.o(i._ZN15Adafruit_SPITFT10startWriteEv), (26 bytes).
    Removing adafruit_spitft.o(i._ZN15Adafruit_SPITFT10writeColorEtj), (162 bytes).
    Removing adafruit_spitft.o(i._ZN15Adafruit_SPITFT10writePixelEsst), (64 bytes).
    Removing adafruit_spitft.o(i._ZN15Adafruit_SPITFT11SPI_WRITE16Et), (100 bytes).
    Removing adafruit_spitft.o(i._ZN15Adafruit_SPITFT11SPI_WRITE32Ej), (114 bytes).
    Removing adafruit_spitft.o(i._ZN15Adafruit_SPITFT11sendCommandEhPKhh), (120 bytes).
    Removing adafruit_spitft.o(i._ZN15Adafruit_SPITFT11sendCommandEhPhh), (120 bytes).
    Removing adafruit_spitft.o(i._ZN15Adafruit_SPITFT11setSPISpeedEj), (4 bytes).
    Removing adafruit_spitft.o(i._ZN15Adafruit_SPITFT11writePixelsEPtjbb), (44 bytes).
    Removing adafruit_spitft.o(i._ZN15Adafruit_SPITFT12readcommand8Ehh), (72 bytes).
    Removing adafruit_spitft.o(i._ZN15Adafruit_SPITFT12writeCommandEh), (28 bytes).
    Removing adafruit_spitft.o(i._ZN15Adafruit_SPITFT13drawFastHLineEssst), (132 bytes).
    Removing adafruit_spitft.o(i._ZN15Adafruit_SPITFT13drawFastVLineEssst), (130 bytes).
    Removing adafruit_spitft.o(i._ZN15Adafruit_SPITFT13drawRGBBitmapEssPtss), (230 bytes).
    Removing adafruit_spitft.o(i._ZN15Adafruit_SPITFT13invertDisplayEb), (44 bytes).
    Removing adafruit_spitft.o(i._ZN15Adafruit_SPITFT13readcommand16Et), (6 bytes).
    Removing adafruit_spitft.o(i._ZN15Adafruit_SPITFT13sendCommand16EtPKhh), (124 bytes).
    Removing adafruit_spitft.o(i._ZN15Adafruit_SPITFT13writeFillRectEsssst), (188 bytes).
    Removing adafruit_spitft.o(i._ZN15Adafruit_SPITFT14writeCommand16Et), (28 bytes).
    Removing adafruit_spitft.o(i._ZN15Adafruit_SPITFT6read16Ev), (24 bytes).
    Removing adafruit_spitft.o(i._ZN15Adafruit_SPITFT7dmaWaitEv), (2 bytes).
    Removing adafruit_spitft.o(i._ZN15Adafruit_SPITFT7initSPIEjh), (252 bytes).
    Removing adafruit_spitft.o(i._ZN15Adafruit_SPITFT7spiReadEv), (118 bytes).
    Removing adafruit_spitft.o(i._ZN15Adafruit_SPITFT7write16Et), (22 bytes).
    Removing adafruit_spitft.o(i._ZN15Adafruit_SPITFT8color565Ehhh), (24 bytes).
    Removing adafruit_spitft.o(i._ZN15Adafruit_SPITFT8endWriteEv), (24 bytes).
    Removing adafruit_spitft.o(i._ZN15Adafruit_SPITFT8fillRectEsssst), (204 bytes).
    Removing adafruit_spitft.o(i._ZN15Adafruit_SPITFT8spiWriteEh), (88 bytes).
    Removing adafruit_spitft.o(i._ZN15Adafruit_SPITFT9drawPixelEsst), (80 bytes).
    Removing adafruit_spitft.o(i._ZN15Adafruit_SPITFT9pushColorEt), (32 bytes).
    Removing adafruit_spitft.o(i._ZN15Adafruit_SPITFTC2Ett11tftBusWidthaaaaaa), (96 bytes).
    Removing adafruit_spitft.o(i._ZN15Adafruit_SPITFTC2EttP8SPIClassaaa), (68 bytes).
    Removing adafruit_spitft.o(i._ZN15Adafruit_SPITFTC2Ettaaa), (28 bytes).
    Removing adafruit_spitft.o(i._ZN15Adafruit_SPITFTC2Ettaaaaaa), (80 bytes).
    Removing adafruit_spitft.o(.ARM.exidx), (8 bytes).
    Removing adafruit_spitft.o(.ARM.exidx), (8 bytes).
    Removing adafruit_spitft.o(.ARM.exidx), (8 bytes).
    Removing adafruit_spitft.o(.ARM.exidx), (8 bytes).
    Removing adafruit_spitft.o(.ARM.exidx), (8 bytes).
    Removing adafruit_spitft.o(.ARM.exidx), (8 bytes).
    Removing adafruit_spitft.o(.ARM.exidx), (8 bytes).
    Removing adafruit_spitft.o(.ARM.exidx), (8 bytes).
    Removing adafruit_spitft.o(.ARM.exidx), (8 bytes).
    Removing adafruit_spitft.o(.ARM.exidx), (8 bytes).
    Removing adafruit_spitft.o(.ARM.exidx), (8 bytes).
    Removing adafruit_spitft.o(.ARM.exidx), (8 bytes).
    Removing adafruit_spitft.o(.ARM.exidx), (8 bytes).
    Removing adafruit_spitft.o(.ARM.exidx), (8 bytes).
    Removing adafruit_spitft.o(.ARM.exidx), (8 bytes).
    Removing adafruit_spitft.o(.ARM.exidx), (8 bytes).
    Removing adafruit_spitft.o(.ARM.exidx), (8 bytes).
    Removing adafruit_spitft.o(.ARM.exidx), (8 bytes).
    Removing adafruit_spitft.o(.ARM.exidx), (8 bytes).
    Removing adafruit_spitft.o(.ARM.exidx), (8 bytes).
    Removing adafruit_spitft.o(.ARM.exidx), (8 bytes).
    Removing adafruit_spitft.o(.ARM.exidx), (8 bytes).
    Removing adafruit_spitft.o(.ARM.exidx), (8 bytes).
    Removing adafruit_spitft.o(.ARM.exidx), (8 bytes).
    Removing adafruit_spitft.o(.ARM.exidx), (8 bytes).
    Removing adafruit_spitft.o(.ARM.exidx), (8 bytes).
    Removing adafruit_spitft.o(.ARM.exidx), (8 bytes).
    Removing adafruit_spitft.o(.ARM.exidx), (8 bytes).
    Removing adafruit_spitft.o(.ARM.exidx), (8 bytes).
    Removing adafruit_spitft.o(.ARM.exidx), (8 bytes).
    Removing adafruit_spitft.o(.ARM.exidx), (8 bytes).
    Removing adafruit_spitft.o(.ARM.exidx), (8 bytes).
    Removing adafruit_spitft.o(.ARM.exidx), (8 bytes).
    Removing adafruit_spitft.o(.ARM.exidx), (8 bytes).
    Removing adafruit_il0373.o(i._ZN15Adafruit_IL037314displayPartialEtttt), (492 bytes).
    Removing adafruit_il0373.o(i._ZN15Adafruit_IL0373C1Eiiaaaaaaaa), (136 bytes).
    Removing adafruit_il0373.o(.ARM.exidx), (8 bytes).
    Removing adafruit_il0373.o(.ARM.exidx), (8 bytes).
    Removing adafruit_il0373.o(.ARM.exidx), (8 bytes).
    Removing adafruit_il0373.o(.ARM.exidx), (8 bytes).
    Removing adafruit_il0373.o(.ARM.exidx), (8 bytes).
    Removing adafruit_il0373.o(.ARM.exidx), (8 bytes).
    Removing adafruit_il0373.o(.ARM.exidx), (8 bytes).
    Removing adafruit_il0373.o(.ARM.exidx), (8 bytes).
    Removing adafruit_il0373.o(.ARM.exidx), (8 bytes).
    Removing adafruit_il0373.o(.ARM.exidx), (8 bytes).
    Removing adafruit_il0398.o(i._ZN15Adafruit_IL039813setRAMAddressEtt), (2 bytes).
    Removing adafruit_il0398.o(i._ZN15Adafruit_IL039815writeRAMCommandEh), (40 bytes).
    Removing adafruit_il0398.o(i._ZN15Adafruit_IL03985beginEb), (54 bytes).
    Removing adafruit_il0398.o(i._ZN15Adafruit_IL03986updateEv), (24 bytes).
    Removing adafruit_il0398.o(i._ZN15Adafruit_IL03987powerUpEv), (114 bytes).
    Removing adafruit_il0398.o(i._ZN15Adafruit_IL03989busy_waitEv), (38 bytes).
    Removing adafruit_il0398.o(i._ZN15Adafruit_IL03989powerDownEv), (60 bytes).
    Removing adafruit_il0398.o(i._ZN15Adafruit_IL0398C1Eiiaaaaa), (136 bytes).
    Removing adafruit_il0398.o(i._ZN15Adafruit_IL0398C1Eiiaaaaaaaa), (136 bytes).
    Removing adafruit_il0398.o(.ARM.exidx), (8 bytes).
    Removing adafruit_il0398.o(.ARM.exidx), (8 bytes).
    Removing adafruit_il0398.o(.ARM.exidx), (8 bytes).
    Removing adafruit_il0398.o(.ARM.exidx), (8 bytes).
    Removing adafruit_il0398.o(.ARM.exidx), (8 bytes).
    Removing adafruit_il0398.o(.ARM.exidx), (8 bytes).
    Removing adafruit_il0398.o(.ARM.exidx), (8 bytes).
    Removing adafruit_il0398.o(.ARM.exidx), (8 bytes).
    Removing adafruit_il0398.o(.ARM.exidx), (8 bytes).
    Removing adafruit_il91874.o(i._ZN16Adafruit_IL9187413setRAMAddressEtt), (2 bytes).
    Removing adafruit_il91874.o(i._ZN16Adafruit_IL9187415writeRAMCommandEh), (40 bytes).
    Removing adafruit_il91874.o(i._ZN16Adafruit_IL918745beginEb), (50 bytes).
    Removing adafruit_il91874.o(i._ZN16Adafruit_IL918746updateEv), (24 bytes).
    Removing adafruit_il91874.o(i._ZN16Adafruit_IL918747powerUpEv), (428 bytes).
    Removing adafruit_il91874.o(i._ZN16Adafruit_IL918749busy_waitEv), (28 bytes).
    Removing adafruit_il91874.o(i._ZN16Adafruit_IL918749powerDownEv), (48 bytes).
    Removing adafruit_il91874.o(i._ZN16Adafruit_IL91874C1EiiaaaaaP8SPIClass), (132 bytes).
    Removing adafruit_il91874.o(i._ZN16Adafruit_IL91874C1Eiiaaaaaaaa), (136 bytes).
    Removing adafruit_il91874.o(.ARM.exidx), (8 bytes).
    Removing adafruit_il91874.o(.ARM.exidx), (8 bytes).
    Removing adafruit_il91874.o(.ARM.exidx), (8 bytes).
    Removing adafruit_il91874.o(.ARM.exidx), (8 bytes).
    Removing adafruit_il91874.o(.ARM.exidx), (8 bytes).
    Removing adafruit_il91874.o(.ARM.exidx), (8 bytes).
    Removing adafruit_il91874.o(.ARM.exidx), (8 bytes).
    Removing adafruit_il91874.o(.ARM.exidx), (8 bytes).
    Removing adafruit_il91874.o(.ARM.exidx), (8 bytes).
    Removing adafruit_il91874.o(.constdata), (212 bytes).
    Removing adafruit_ssd1608.o(i._ZN16Adafruit_SSD160813setRAMAddressEtt), (52 bytes).
    Removing adafruit_ssd1608.o(i._ZN16Adafruit_SSD160815writeRAMCommandEh), (18 bytes).
    Removing adafruit_ssd1608.o(i._ZN16Adafruit_SSD16085beginEb), (44 bytes).
    Removing adafruit_ssd1608.o(i._ZN16Adafruit_SSD16086updateEv), (40 bytes).
    Removing adafruit_ssd1608.o(i._ZN16Adafruit_SSD16087powerUpEv), (252 bytes).
    Removing adafruit_ssd1608.o(i._ZN16Adafruit_SSD16089busy_waitEv), (28 bytes).
    Removing adafruit_ssd1608.o(i._ZN16Adafruit_SSD16089powerDownEv), (24 bytes).
    Removing adafruit_ssd1608.o(i._ZN16Adafruit_SSD1608C1EiiaaaaaP8SPIClass), (160 bytes).
    Removing adafruit_ssd1608.o(i._ZN16Adafruit_SSD1608C1Eiiaaaaaaaa), (164 bytes).
    Removing adafruit_ssd1608.o(.ARM.exidx), (8 bytes).
    Removing adafruit_ssd1608.o(.ARM.exidx), (8 bytes).
    Removing adafruit_ssd1608.o(.ARM.exidx), (8 bytes).
    Removing adafruit_ssd1608.o(.ARM.exidx), (8 bytes).
    Removing adafruit_ssd1608.o(.ARM.exidx), (8 bytes).
    Removing adafruit_ssd1608.o(.ARM.exidx), (8 bytes).
    Removing adafruit_ssd1608.o(.ARM.exidx), (8 bytes).
    Removing adafruit_ssd1608.o(.ARM.exidx), (8 bytes).
    Removing adafruit_ssd1608.o(.ARM.exidx), (8 bytes).
    Removing adafruit_ssd1608.o(.constdata), (30 bytes).
    Removing adafruit_ssd1619.o(i._ZN16Adafruit_SSD161912setRAMWindowEtttt), (98 bytes).
    Removing adafruit_ssd1619.o(i._ZN16Adafruit_SSD161913setRAMAddressEtt), (50 bytes).
    Removing adafruit_ssd1619.o(i._ZN16Adafruit_SSD161915writeRAMCommandEh), (40 bytes).
    Removing adafruit_ssd1619.o(i._ZN16Adafruit_SSD16195beginEb), (44 bytes).
    Removing adafruit_ssd1619.o(i._ZN16Adafruit_SSD16196updateEv), (40 bytes).
    Removing adafruit_ssd1619.o(i._ZN16Adafruit_SSD16197powerUpEv), (104 bytes).
    Removing adafruit_ssd1619.o(i._ZN16Adafruit_SSD16199busy_waitEv), (28 bytes).
    Removing adafruit_ssd1619.o(i._ZN16Adafruit_SSD16199powerDownEv), (50 bytes).
    Removing adafruit_ssd1619.o(i._ZN16Adafruit_SSD1619C1EiiaaaaaP8SPIClass), (176 bytes).
    Removing adafruit_ssd1619.o(i._ZN16Adafruit_SSD1619C1Eiiaaaaaaaa), (180 bytes).
    Removing adafruit_ssd1619.o(.ARM.exidx), (8 bytes).
    Removing adafruit_ssd1619.o(.ARM.exidx), (8 bytes).
    Removing adafruit_ssd1619.o(.ARM.exidx), (8 bytes).
    Removing adafruit_ssd1619.o(.ARM.exidx), (8 bytes).
    Removing adafruit_ssd1619.o(.ARM.exidx), (8 bytes).
    Removing adafruit_ssd1619.o(.ARM.exidx), (8 bytes).
    Removing adafruit_ssd1619.o(.ARM.exidx), (8 bytes).
    Removing adafruit_ssd1619.o(.ARM.exidx), (8 bytes).
    Removing adafruit_ssd1619.o(.ARM.exidx), (8 bytes).
    Removing adafruit_ssd1619.o(.ARM.exidx), (8 bytes).
    Removing adafruit_ssd1619.o(.constdata), (27 bytes).
    Removing adafruit_ssd1675.o(i._ZN16Adafruit_SSD167513setRAMAddressEtt), (52 bytes).
    Removing adafruit_ssd1675.o(i._ZN16Adafruit_SSD167515writeRAMCommandEh), (40 bytes).
    Removing adafruit_ssd1675.o(i._ZN16Adafruit_SSD16755beginEb), (44 bytes).
    Removing adafruit_ssd1675.o(i._ZN16Adafruit_SSD16756updateEv), (40 bytes).
    Removing adafruit_ssd1675.o(i._ZN16Adafruit_SSD16757powerUpEv), (392 bytes).
    Removing adafruit_ssd1675.o(i._ZN16Adafruit_SSD16759busy_waitEv), (28 bytes).
    Removing adafruit_ssd1675.o(i._ZN16Adafruit_SSD16759powerDownEv), (50 bytes).
    Removing adafruit_ssd1675.o(i._ZN16Adafruit_SSD1675C1EiiaaaaaP8SPIClass), (168 bytes).
    Removing adafruit_ssd1675.o(i._ZN16Adafruit_SSD1675C1Eiiaaaaaaaa), (172 bytes).
    Removing adafruit_ssd1675.o(.ARM.exidx), (8 bytes).
    Removing adafruit_ssd1675.o(.ARM.exidx), (8 bytes).
    Removing adafruit_ssd1675.o(.ARM.exidx), (8 bytes).
    Removing adafruit_ssd1675.o(.ARM.exidx), (8 bytes).
    Removing adafruit_ssd1675.o(.ARM.exidx), (8 bytes).
    Removing adafruit_ssd1675.o(.ARM.exidx), (8 bytes).
    Removing adafruit_ssd1675.o(.ARM.exidx), (8 bytes).
    Removing adafruit_ssd1675.o(.ARM.exidx), (8 bytes).
    Removing adafruit_ssd1675.o(.ARM.exidx), (8 bytes).
    Removing adafruit_ssd1675.o(.constdata), (76 bytes).
    Removing adafruit_ssd1675b.o(i._ZN17Adafruit_SSD1675B13setRAMAddressEtt), (60 bytes).
    Removing adafruit_ssd1675b.o(i._ZN17Adafruit_SSD1675B15writeRAMCommandEh), (40 bytes).
    Removing adafruit_ssd1675b.o(i._ZN17Adafruit_SSD1675B5beginEb), (44 bytes).
    Removing adafruit_ssd1675b.o(i._ZN17Adafruit_SSD1675B6updateEv), (40 bytes).
    Removing adafruit_ssd1675b.o(i._ZN17Adafruit_SSD1675B7powerUpEv), (428 bytes).
    Removing adafruit_ssd1675b.o(i._ZN17Adafruit_SSD1675B9busy_waitEv), (28 bytes).
    Removing adafruit_ssd1675b.o(i._ZN17Adafruit_SSD1675B9powerDownEv), (50 bytes).
    Removing adafruit_ssd1675b.o(i._ZN17Adafruit_SSD1675BC1EiiaaaaaP8SPIClass), (168 bytes).
    Removing adafruit_ssd1675b.o(i._ZN17Adafruit_SSD1675BC1Eiiaaaaaaaa), (172 bytes).
    Removing adafruit_ssd1675b.o(.ARM.exidx), (8 bytes).
    Removing adafruit_ssd1675b.o(.ARM.exidx), (8 bytes).
    Removing adafruit_ssd1675b.o(.ARM.exidx), (8 bytes).
    Removing adafruit_ssd1675b.o(.ARM.exidx), (8 bytes).
    Removing adafruit_ssd1675b.o(.ARM.exidx), (8 bytes).
    Removing adafruit_ssd1675b.o(.ARM.exidx), (8 bytes).
    Removing adafruit_ssd1675b.o(.ARM.exidx), (8 bytes).
    Removing adafruit_ssd1675b.o(.ARM.exidx), (8 bytes).
    Removing adafruit_ssd1675b.o(.ARM.exidx), (8 bytes).
    Removing adafruit_ssd1675b.o(.constdata), (107 bytes).
    Removing adafruit_ssd1680.o(i._ZN16Adafruit_SSD168013setRAMAddressEtt), (50 bytes).
    Removing adafruit_ssd1680.o(i._ZN16Adafruit_SSD168015writeRAMCommandEh), (40 bytes).
    Removing adafruit_ssd1680.o(i._ZN16Adafruit_SSD16805beginEb), (44 bytes).
    Removing adafruit_ssd1680.o(i._ZN16Adafruit_SSD16806updateEv), (40 bytes).
    Removing adafruit_ssd1680.o(i._ZN16Adafruit_SSD16807powerUpEv), (192 bytes).
    Removing adafruit_ssd1680.o(i._ZN16Adafruit_SSD16809busy_waitEv), (28 bytes).
    Removing adafruit_ssd1680.o(i._ZN16Adafruit_SSD16809powerDownEv), (50 bytes).
    Removing adafruit_ssd1680.o(i._ZN16Adafruit_SSD1680C1EiiaaaaaP8SPIClass), (176 bytes).
    Removing adafruit_ssd1680.o(i._ZN16Adafruit_SSD1680C1Eiiaaaaaaaa), (180 bytes).
    Removing adafruit_ssd1680.o(.ARM.exidx), (8 bytes).
    Removing adafruit_ssd1680.o(.ARM.exidx), (8 bytes).
    Removing adafruit_ssd1680.o(.ARM.exidx), (8 bytes).
    Removing adafruit_ssd1680.o(.ARM.exidx), (8 bytes).
    Removing adafruit_ssd1680.o(.ARM.exidx), (8 bytes).
    Removing adafruit_ssd1680.o(.ARM.exidx), (8 bytes).
    Removing adafruit_ssd1680.o(.ARM.exidx), (8 bytes).
    Removing adafruit_ssd1680.o(.ARM.exidx), (8 bytes).
    Removing adafruit_ssd1680.o(.ARM.exidx), (8 bytes).
    Removing adafruit_ssd1680.o(.constdata), (29 bytes).
    Removing adafruit_ssd1681.o(i._ZN16Adafruit_SSD168112setRAMWindowEtttt), (78 bytes).
    Removing adafruit_ssd1681.o(i._ZN16Adafruit_SSD168113setRAMAddressEtt), (52 bytes).
    Removing adafruit_ssd1681.o(i._ZN16Adafruit_SSD168113updatePartialEv), (40 bytes).
    Removing adafruit_ssd1681.o(i._ZN16Adafruit_SSD168114displayPartialEtttt), (348 bytes).
    Removing adafruit_ssd1681.o(i._ZN16Adafruit_SSD168115writeRAMCommandEh), (40 bytes).
    Removing adafruit_ssd1681.o(i._ZN16Adafruit_SSD16815beginEb), (44 bytes).
    Removing adafruit_ssd1681.o(i._ZN16Adafruit_SSD16816updateEv), (40 bytes).
    Removing adafruit_ssd1681.o(i._ZN16Adafruit_SSD16817powerUpEv), (112 bytes).
    Removing adafruit_ssd1681.o(i._ZN16Adafruit_SSD16819busy_waitEv), (28 bytes).
    Removing adafruit_ssd1681.o(i._ZN16Adafruit_SSD16819powerDownEv), (50 bytes).
    Removing adafruit_ssd1681.o(i._ZN16Adafruit_SSD1681C1EiiaaaaaP8SPIClass), (176 bytes).
    Removing adafruit_ssd1681.o(i._ZN16Adafruit_SSD1681C1Eiiaaaaaaaa), (180 bytes).
    Removing adafruit_ssd1681.o(.ARM.exidx), (8 bytes).
    Removing adafruit_ssd1681.o(.ARM.exidx), (8 bytes).
    Removing adafruit_ssd1681.o(.ARM.exidx), (8 bytes).
    Removing adafruit_ssd1681.o(.ARM.exidx), (8 bytes).
    Removing adafruit_ssd1681.o(.ARM.exidx), (8 bytes).
    Removing adafruit_ssd1681.o(.ARM.exidx), (8 bytes).
    Removing adafruit_ssd1681.o(.ARM.exidx), (8 bytes).
    Removing adafruit_ssd1681.o(.ARM.exidx), (8 bytes).
    Removing adafruit_ssd1681.o(.ARM.exidx), (8 bytes).
    Removing adafruit_ssd1681.o(.ARM.exidx), (8 bytes).
    Removing adafruit_ssd1681.o(.ARM.exidx), (8 bytes).
    Removing adafruit_ssd1681.o(.ARM.exidx), (8 bytes).
    Removing adafruit_ssd1681.o(.constdata), (21 bytes).
    Removing spi.o(.ARM.exidx), (8 bytes).
    Removing system_nrf52840.o(.rev16_text), (4 bytes).
    Removing system_nrf52840.o(.revsh_text), (4 bytes).
    Removing system_nrf52840.o(.rrx_text), (6 bytes).
    Removing system_nrf52840.o(i.nrf51_errata_1), (4 bytes).
    Removing system_nrf52840.o(i.nrf51_errata_10), (4 bytes).
    Removing system_nrf52840.o(i.nrf51_errata_11), (4 bytes).
    Removing system_nrf52840.o(i.nrf51_errata_12), (4 bytes).
    Removing system_nrf52840.o(i.nrf51_errata_13), (4 bytes).
    Removing system_nrf52840.o(i.nrf51_errata_14), (4 bytes).
    Removing system_nrf52840.o(i.nrf51_errata_15), (4 bytes).
    Removing system_nrf52840.o(i.nrf51_errata_16), (4 bytes).
    Removing system_nrf52840.o(i.nrf51_errata_17), (4 bytes).
    Removing system_nrf52840.o(i.nrf51_errata_18), (4 bytes).
    Removing system_nrf52840.o(i.nrf51_errata_19), (4 bytes).
    Removing system_nrf52840.o(i.nrf51_errata_2), (4 bytes).
    Removing system_nrf52840.o(i.nrf51_errata_20), (4 bytes).
    Removing system_nrf52840.o(i.nrf51_errata_21), (4 bytes).
    Removing system_nrf52840.o(i.nrf51_errata_22), (4 bytes).
    Removing system_nrf52840.o(i.nrf51_errata_23), (4 bytes).
    Removing system_nrf52840.o(i.nrf51_errata_24), (4 bytes).
    Removing system_nrf52840.o(i.nrf51_errata_25), (4 bytes).
    Removing system_nrf52840.o(i.nrf51_errata_26), (4 bytes).
    Removing system_nrf52840.o(i.nrf51_errata_27), (4 bytes).
    Removing system_nrf52840.o(i.nrf51_errata_28), (4 bytes).
    Removing system_nrf52840.o(i.nrf51_errata_29), (4 bytes).
    Removing system_nrf52840.o(i.nrf51_errata_3), (4 bytes).
    Removing system_nrf52840.o(i.nrf51_errata_30), (4 bytes).
    Removing system_nrf52840.o(i.nrf51_errata_31), (4 bytes).
    Removing system_nrf52840.o(i.nrf51_errata_32), (4 bytes).
    Removing system_nrf52840.o(i.nrf51_errata_33), (4 bytes).
    Removing system_nrf52840.o(i.nrf51_errata_34), (4 bytes).
    Removing system_nrf52840.o(i.nrf51_errata_35), (4 bytes).
    Removing system_nrf52840.o(i.nrf51_errata_36), (4 bytes).
    Removing system_nrf52840.o(i.nrf51_errata_37), (4 bytes).
    Removing system_nrf52840.o(i.nrf51_errata_38), (4 bytes).
    Removing system_nrf52840.o(i.nrf51_errata_39), (4 bytes).
    Removing system_nrf52840.o(i.nrf51_errata_4), (4 bytes).
    Removing system_nrf52840.o(i.nrf51_errata_40), (4 bytes).
    Removing system_nrf52840.o(i.nrf51_errata_41), (4 bytes).
    Removing system_nrf52840.o(i.nrf51_errata_42), (4 bytes).
    Removing system_nrf52840.o(i.nrf51_errata_43), (4 bytes).
    Removing system_nrf52840.o(i.nrf51_errata_44), (4 bytes).
    Removing system_nrf52840.o(i.nrf51_errata_45), (4 bytes).
    Removing system_nrf52840.o(i.nrf51_errata_46), (4 bytes).
    Removing system_nrf52840.o(i.nrf51_errata_47), (4 bytes).
    Removing system_nrf52840.o(i.nrf51_errata_48), (4 bytes).
    Removing system_nrf52840.o(i.nrf51_errata_49), (4 bytes).
    Removing system_nrf52840.o(i.nrf51_errata_5), (4 bytes).
    Removing system_nrf52840.o(i.nrf51_errata_50), (4 bytes).
    Removing system_nrf52840.o(i.nrf51_errata_51), (4 bytes).
    Removing system_nrf52840.o(i.nrf51_errata_52), (4 bytes).
    Removing system_nrf52840.o(i.nrf51_errata_53), (4 bytes).
    Removing system_nrf52840.o(i.nrf51_errata_54), (4 bytes).
    Removing system_nrf52840.o(i.nrf51_errata_55), (4 bytes).
    Removing system_nrf52840.o(i.nrf51_errata_56), (4 bytes).
    Removing system_nrf52840.o(i.nrf51_errata_57), (4 bytes).
    Removing system_nrf52840.o(i.nrf51_errata_58), (4 bytes).
    Removing system_nrf52840.o(i.nrf51_errata_59), (4 bytes).
    Removing system_nrf52840.o(i.nrf51_errata_6), (4 bytes).
    Removing system_nrf52840.o(i.nrf51_errata_60), (4 bytes).
    Removing system_nrf52840.o(i.nrf51_errata_61), (4 bytes).
    Removing system_nrf52840.o(i.nrf51_errata_62), (4 bytes).
    Removing system_nrf52840.o(i.nrf51_errata_63), (4 bytes).
    Removing system_nrf52840.o(i.nrf51_errata_64), (4 bytes).
    Removing system_nrf52840.o(i.nrf51_errata_65), (4 bytes).
    Removing system_nrf52840.o(i.nrf51_errata_66), (4 bytes).
    Removing system_nrf52840.o(i.nrf51_errata_67), (4 bytes).
    Removing system_nrf52840.o(i.nrf51_errata_68), (4 bytes).
    Removing system_nrf52840.o(i.nrf51_errata_69), (4 bytes).
    Removing system_nrf52840.o(i.nrf51_errata_7), (4 bytes).
    Removing system_nrf52840.o(i.nrf51_errata_70), (4 bytes).
    Removing system_nrf52840.o(i.nrf51_errata_71), (4 bytes).
    Removing system_nrf52840.o(i.nrf51_errata_72), (4 bytes).
    Removing system_nrf52840.o(i.nrf51_errata_73), (4 bytes).
    Removing system_nrf52840.o(i.nrf51_errata_74), (4 bytes).
    Removing system_nrf52840.o(i.nrf51_errata_75), (4 bytes).
    Removing system_nrf52840.o(i.nrf51_errata_76), (4 bytes).
    Removing system_nrf52840.o(i.nrf51_errata_77), (4 bytes).
    Removing system_nrf52840.o(i.nrf51_errata_78), (4 bytes).
    Removing system_nrf52840.o(i.nrf51_errata_8), (4 bytes).
    Removing system_nrf52840.o(i.nrf51_errata_9), (4 bytes).
    Removing system_nrf52840.o(i.nrf52_errata_1), (4 bytes).
    Removing system_nrf52840.o(i.nrf52_errata_10), (4 bytes).
    Removing system_nrf52840.o(i.nrf52_errata_101), (4 bytes).
    Removing system_nrf52840.o(i.nrf52_errata_102), (4 bytes).
    Removing system_nrf52840.o(i.nrf52_errata_104), (60 bytes).
    Removing system_nrf52840.o(i.nrf52_errata_106), (4 bytes).
    Removing system_nrf52840.o(i.nrf52_errata_107), (4 bytes).
    Removing system_nrf52840.o(i.nrf52_errata_108), (4 bytes).
    Removing system_nrf52840.o(i.nrf52_errata_109), (4 bytes).
    Removing system_nrf52840.o(i.nrf52_errata_11), (4 bytes).
    Removing system_nrf52840.o(i.nrf52_errata_110), (60 bytes).
    Removing system_nrf52840.o(i.nrf52_errata_111), (60 bytes).
    Removing system_nrf52840.o(i.nrf52_errata_112), (60 bytes).
    Removing system_nrf52840.o(i.nrf52_errata_113), (60 bytes).
    Removing system_nrf52840.o(i.nrf52_errata_116), (60 bytes).
    Removing system_nrf52840.o(i.nrf52_errata_117), (60 bytes).
    Removing system_nrf52840.o(i.nrf52_errata_118), (60 bytes).
    Removing system_nrf52840.o(i.nrf52_errata_119), (60 bytes).
    Removing system_nrf52840.o(i.nrf52_errata_12), (4 bytes).
    Removing system_nrf52840.o(i.nrf52_errata_121), (60 bytes).
    Removing system_nrf52840.o(i.nrf52_errata_122), (60 bytes).
    Removing system_nrf52840.o(i.nrf52_errata_127), (60 bytes).
    Removing system_nrf52840.o(i.nrf52_errata_128), (60 bytes).
    Removing system_nrf52840.o(i.nrf52_errata_131), (60 bytes).
    Removing system_nrf52840.o(i.nrf52_errata_132), (4 bytes).
    Removing system_nrf52840.o(i.nrf52_errata_133), (60 bytes).
    Removing system_nrf52840.o(i.nrf52_errata_134), (60 bytes).
    Removing system_nrf52840.o(i.nrf52_errata_135), (60 bytes).
    Removing system_nrf52840.o(i.nrf52_errata_138), (4 bytes).
    Removing system_nrf52840.o(i.nrf52_errata_140), (60 bytes).
    Removing system_nrf52840.o(i.nrf52_errata_141), (4 bytes).
    Removing system_nrf52840.o(i.nrf52_errata_142), (60 bytes).
    Removing system_nrf52840.o(i.nrf52_errata_143), (60 bytes).
    Removing system_nrf52840.o(i.nrf52_errata_144), (60 bytes).
    Removing system_nrf52840.o(i.nrf52_errata_145), (60 bytes).
    Removing system_nrf52840.o(i.nrf52_errata_146), (4 bytes).
    Removing system_nrf52840.o(i.nrf52_errata_147), (60 bytes).
    Removing system_nrf52840.o(i.nrf52_errata_149), (4 bytes).
    Removing system_nrf52840.o(i.nrf52_errata_15), (60 bytes).
    Removing system_nrf52840.o(i.nrf52_errata_150), (60 bytes).
    Removing system_nrf52840.o(i.nrf52_errata_151), (60 bytes).
    Removing system_nrf52840.o(i.nrf52_errata_153), (60 bytes).
    Removing system_nrf52840.o(i.nrf52_errata_154), (60 bytes).
    Removing system_nrf52840.o(i.nrf52_errata_155), (60 bytes).
    Removing system_nrf52840.o(i.nrf52_errata_156), (60 bytes).
    Removing system_nrf52840.o(i.nrf52_errata_158), (60 bytes).
    Removing system_nrf52840.o(i.nrf52_errata_16), (4 bytes).
    Removing system_nrf52840.o(i.nrf52_errata_160), (60 bytes).
    Removing system_nrf52840.o(i.nrf52_errata_162), (60 bytes).
    Removing system_nrf52840.o(i.nrf52_errata_163), (4 bytes).
    Removing system_nrf52840.o(i.nrf52_errata_164), (60 bytes).
    Removing system_nrf52840.o(i.nrf52_errata_166), (60 bytes).
    Removing system_nrf52840.o(i.nrf52_errata_17), (4 bytes).
    Removing system_nrf52840.o(i.nrf52_errata_170), (60 bytes).
    Removing system_nrf52840.o(i.nrf52_errata_171), (60 bytes).
    Removing system_nrf52840.o(i.nrf52_errata_172), (60 bytes).
    Removing system_nrf52840.o(i.nrf52_errata_173), (60 bytes).
    Removing system_nrf52840.o(i.nrf52_errata_174), (60 bytes).
    Removing system_nrf52840.o(i.nrf52_errata_176), (60 bytes).
    Removing system_nrf52840.o(i.nrf52_errata_178), (4 bytes).
    Removing system_nrf52840.o(i.nrf52_errata_179), (60 bytes).
    Removing system_nrf52840.o(i.nrf52_errata_180), (60 bytes).
    Removing system_nrf52840.o(i.nrf52_errata_181), (60 bytes).
    Removing system_nrf52840.o(i.nrf52_errata_182), (4 bytes).
    Removing system_nrf52840.o(i.nrf52_errata_183), (60 bytes).
    Removing system_nrf52840.o(i.nrf52_errata_184), (60 bytes).
    Removing system_nrf52840.o(i.nrf52_errata_186), (60 bytes).
    Removing system_nrf52840.o(i.nrf52_errata_187), (60 bytes).
    Removing system_nrf52840.o(i.nrf52_errata_189), (60 bytes).
    Removing system_nrf52840.o(i.nrf52_errata_190), (60 bytes).
    Removing system_nrf52840.o(i.nrf52_errata_191), (60 bytes).
    Removing system_nrf52840.o(i.nrf52_errata_192), (60 bytes).
    Removing system_nrf52840.o(i.nrf52_errata_193), (60 bytes).
    Removing system_nrf52840.o(i.nrf52_errata_194), (60 bytes).
    Removing system_nrf52840.o(i.nrf52_errata_195), (60 bytes).
    Removing system_nrf52840.o(i.nrf52_errata_196), (60 bytes).
    Removing system_nrf52840.o(i.nrf52_errata_197), (60 bytes).
    Removing system_nrf52840.o(i.nrf52_errata_198), (60 bytes).
    Removing system_nrf52840.o(i.nrf52_errata_199), (60 bytes).
    Removing system_nrf52840.o(i.nrf52_errata_2), (4 bytes).
    Removing system_nrf52840.o(i.nrf52_errata_20), (60 bytes).
    Removing system_nrf52840.o(i.nrf52_errata_200), (60 bytes).
    Removing system_nrf52840.o(i.nrf52_errata_201), (60 bytes).
    Removing system_nrf52840.o(i.nrf52_errata_202), (60 bytes).
    Removing system_nrf52840.o(i.nrf52_errata_204), (60 bytes).
    Removing system_nrf52840.o(i.nrf52_errata_208), (60 bytes).
    Removing system_nrf52840.o(i.nrf52_errata_209), (60 bytes).
    Removing system_nrf52840.o(i.nrf52_errata_210), (60 bytes).
    Removing system_nrf52840.o(i.nrf52_errata_211), (60 bytes).
    Removing system_nrf52840.o(i.nrf52_errata_212), (60 bytes).
    Removing system_nrf52840.o(i.nrf52_errata_213), (60 bytes).
    Removing system_nrf52840.o(i.nrf52_errata_214), (60 bytes).
    Removing system_nrf52840.o(i.nrf52_errata_215), (60 bytes).
    Removing system_nrf52840.o(i.nrf52_errata_216), (60 bytes).
    Removing system_nrf52840.o(i.nrf52_errata_217), (4 bytes).
    Removing system_nrf52840.o(i.nrf52_errata_218), (60 bytes).
    Removing system_nrf52840.o(i.nrf52_errata_219), (60 bytes).
    Removing system_nrf52840.o(i.nrf52_errata_220), (4 bytes).
    Removing system_nrf52840.o(i.nrf52_errata_223), (4 bytes).
    Removing system_nrf52840.o(i.nrf52_errata_225), (4 bytes).
    Removing system_nrf52840.o(i.nrf52_errata_228), (60 bytes).
    Removing system_nrf52840.o(i.nrf52_errata_23), (4 bytes).
    Removing system_nrf52840.o(i.nrf52_errata_230), (4 bytes).
    Removing system_nrf52840.o(i.nrf52_errata_231), (4 bytes).
    Removing system_nrf52840.o(i.nrf52_errata_232), (4 bytes).
    Removing system_nrf52840.o(i.nrf52_errata_233), (60 bytes).
    Removing system_nrf52840.o(i.nrf52_errata_236), (60 bytes).
    Removing system_nrf52840.o(i.nrf52_errata_237), (60 bytes).
    Removing system_nrf52840.o(i.nrf52_errata_24), (4 bytes).
    Removing system_nrf52840.o(i.nrf52_errata_248), (4 bytes).
    Removing system_nrf52840.o(i.nrf52_errata_25), (4 bytes).
    Removing system_nrf52840.o(i.nrf52_errata_26), (4 bytes).
    Removing system_nrf52840.o(i.nrf52_errata_27), (4 bytes).
    Removing system_nrf52840.o(i.nrf52_errata_28), (4 bytes).
    Removing system_nrf52840.o(i.nrf52_errata_29), (4 bytes).
    Removing system_nrf52840.o(i.nrf52_errata_3), (4 bytes).
    Removing system_nrf52840.o(i.nrf52_errata_30), (4 bytes).
    Removing system_nrf52840.o(i.nrf52_errata_31), (4 bytes).
    Removing system_nrf52840.o(i.nrf52_errata_32), (4 bytes).
    Removing system_nrf52840.o(i.nrf52_errata_33), (4 bytes).
    Removing system_nrf52840.o(i.nrf52_errata_34), (4 bytes).
    Removing system_nrf52840.o(i.nrf52_errata_35), (4 bytes).
    Removing system_nrf52840.o(i.nrf52_errata_37), (4 bytes).
    Removing system_nrf52840.o(i.nrf52_errata_38), (4 bytes).
    Removing system_nrf52840.o(i.nrf52_errata_39), (4 bytes).
    Removing system_nrf52840.o(i.nrf52_errata_4), (4 bytes).
    Removing system_nrf52840.o(i.nrf52_errata_40), (4 bytes).
    Removing system_nrf52840.o(i.nrf52_errata_41), (4 bytes).
    Removing system_nrf52840.o(i.nrf52_errata_42), (4 bytes).
    Removing system_nrf52840.o(i.nrf52_errata_43), (4 bytes).
    Removing system_nrf52840.o(i.nrf52_errata_44), (4 bytes).
    Removing system_nrf52840.o(i.nrf52_errata_46), (4 bytes).
    Removing system_nrf52840.o(i.nrf52_errata_47), (4 bytes).
    Removing system_nrf52840.o(i.nrf52_errata_48), (4 bytes).
    Removing system_nrf52840.o(i.nrf52_errata_49), (4 bytes).
    Removing system_nrf52840.o(i.nrf52_errata_51), (4 bytes).
    Removing system_nrf52840.o(i.nrf52_errata_54), (60 bytes).
    Removing system_nrf52840.o(i.nrf52_errata_55), (60 bytes).
    Removing system_nrf52840.o(i.nrf52_errata_57), (4 bytes).
    Removing system_nrf52840.o(i.nrf52_errata_58), (60 bytes).
    Removing system_nrf52840.o(i.nrf52_errata_62), (4 bytes).
    Removing system_nrf52840.o(i.nrf52_errata_63), (4 bytes).
    Removing system_nrf52840.o(i.nrf52_errata_64), (4 bytes).
    Removing system_nrf52840.o(i.nrf52_errata_65), (4 bytes).
    Removing system_nrf52840.o(i.nrf52_errata_67), (4 bytes).
    Removing system_nrf52840.o(i.nrf52_errata_68), (60 bytes).
    Removing system_nrf52840.o(i.nrf52_errata_7), (4 bytes).
    Removing system_nrf52840.o(i.nrf52_errata_70), (4 bytes).
    Removing system_nrf52840.o(i.nrf52_errata_71), (4 bytes).
    Removing system_nrf52840.o(i.nrf52_errata_72), (4 bytes).
    Removing system_nrf52840.o(i.nrf52_errata_73), (4 bytes).
    Removing system_nrf52840.o(i.nrf52_errata_74), (4 bytes).
    Removing system_nrf52840.o(i.nrf52_errata_75), (4 bytes).
    Removing system_nrf52840.o(i.nrf52_errata_76), (4 bytes).
    Removing system_nrf52840.o(i.nrf52_errata_77), (4 bytes).
    Removing system_nrf52840.o(i.nrf52_errata_78), (60 bytes).
    Removing system_nrf52840.o(i.nrf52_errata_79), (4 bytes).
    Removing system_nrf52840.o(i.nrf52_errata_8), (4 bytes).
    Removing system_nrf52840.o(i.nrf52_errata_81), (60 bytes).
    Removing system_nrf52840.o(i.nrf52_errata_83), (60 bytes).
    Removing system_nrf52840.o(i.nrf52_errata_84), (4 bytes).
    Removing system_nrf52840.o(i.nrf52_errata_86), (4 bytes).
    Removing system_nrf52840.o(i.nrf52_errata_87), (60 bytes).
    Removing system_nrf52840.o(i.nrf52_errata_88), (4 bytes).
    Removing system_nrf52840.o(i.nrf52_errata_89), (60 bytes).
    Removing system_nrf52840.o(i.nrf52_errata_9), (4 bytes).
    Removing system_nrf52840.o(i.nrf52_errata_91), (4 bytes).
    Removing system_nrf52840.o(i.nrf52_errata_94), (60 bytes).
    Removing system_nrf52840.o(i.nrf52_errata_96), (60 bytes).
    Removing system_nrf52840.o(i.nrf52_errata_97), (60 bytes).
    Removing system_nrf52840.o(i.nrf53_errata_1), (4 bytes).
    Removing system_nrf52840.o(i.nrf53_errata_10), (4 bytes).
    Removing system_nrf52840.o(i.nrf53_errata_103), (4 bytes).
    Removing system_nrf52840.o(i.nrf53_errata_105), (4 bytes).
    Removing system_nrf52840.o(i.nrf53_errata_106), (4 bytes).
    Removing system_nrf52840.o(i.nrf53_errata_109), (4 bytes).
    Removing system_nrf52840.o(i.nrf53_errata_11), (4 bytes).
    Removing system_nrf52840.o(i.nrf53_errata_110), (4 bytes).
    Removing system_nrf52840.o(i.nrf53_errata_113), (4 bytes).
    Removing system_nrf52840.o(i.nrf53_errata_114), (4 bytes).
    Removing system_nrf52840.o(i.nrf53_errata_115), (4 bytes).
    Removing system_nrf52840.o(i.nrf53_errata_116), (4 bytes).
    Removing system_nrf52840.o(i.nrf53_errata_119), (4 bytes).
    Removing system_nrf52840.o(i.nrf53_errata_12), (4 bytes).
    Removing system_nrf52840.o(i.nrf53_errata_13), (4 bytes).
    Removing system_nrf52840.o(i.nrf53_errata_14), (4 bytes).
    Removing system_nrf52840.o(i.nrf53_errata_15), (4 bytes).
    Removing system_nrf52840.o(i.nrf53_errata_16), (4 bytes).
    Removing system_nrf52840.o(i.nrf53_errata_18), (4 bytes).
    Removing system_nrf52840.o(i.nrf53_errata_19), (4 bytes).
    Removing system_nrf52840.o(i.nrf53_errata_2), (4 bytes).
    Removing system_nrf52840.o(i.nrf53_errata_20), (4 bytes).
    Removing system_nrf52840.o(i.nrf53_errata_21), (4 bytes).
    Removing system_nrf52840.o(i.nrf53_errata_22), (4 bytes).
    Removing system_nrf52840.o(i.nrf53_errata_23), (4 bytes).
    Removing system_nrf52840.o(i.nrf53_errata_26), (4 bytes).
    Removing system_nrf52840.o(i.nrf53_errata_27), (4 bytes).
    Removing system_nrf52840.o(i.nrf53_errata_28), (4 bytes).
    Removing system_nrf52840.o(i.nrf53_errata_29), (4 bytes).
    Removing system_nrf52840.o(i.nrf53_errata_3), (4 bytes).
    Removing system_nrf52840.o(i.nrf53_errata_30), (4 bytes).
    Removing system_nrf52840.o(i.nrf53_errata_31), (4 bytes).
    Removing system_nrf52840.o(i.nrf53_errata_32), (4 bytes).
    Removing system_nrf52840.o(i.nrf53_errata_33), (4 bytes).
    Removing system_nrf52840.o(i.nrf53_errata_34), (4 bytes).
    Removing system_nrf52840.o(i.nrf53_errata_36), (4 bytes).
    Removing system_nrf52840.o(i.nrf53_errata_37), (4 bytes).
    Removing system_nrf52840.o(i.nrf53_errata_4), (4 bytes).
    Removing system_nrf52840.o(i.nrf53_errata_42), (4 bytes).
    Removing system_nrf52840.o(i.nrf53_errata_43), (4 bytes).
    Removing system_nrf52840.o(i.nrf53_errata_44), (4 bytes).
    Removing system_nrf52840.o(i.nrf53_errata_45), (4 bytes).
    Removing system_nrf52840.o(i.nrf53_errata_46), (4 bytes).
    Removing system_nrf52840.o(i.nrf53_errata_47), (4 bytes).
    Removing system_nrf52840.o(i.nrf53_errata_49), (4 bytes).
    Removing system_nrf52840.o(i.nrf53_errata_5), (4 bytes).
    Removing system_nrf52840.o(i.nrf53_errata_50), (4 bytes).
    Removing system_nrf52840.o(i.nrf53_errata_51), (4 bytes).
    Removing system_nrf52840.o(i.nrf53_errata_52), (4 bytes).
    Removing system_nrf52840.o(i.nrf53_errata_53), (4 bytes).
    Removing system_nrf52840.o(i.nrf53_errata_54), (4 bytes).
    Removing system_nrf52840.o(i.nrf53_errata_55), (4 bytes).
    Removing system_nrf52840.o(i.nrf53_errata_57), (4 bytes).
    Removing system_nrf52840.o(i.nrf53_errata_58), (4 bytes).
    Removing system_nrf52840.o(i.nrf53_errata_59), (4 bytes).
    Removing system_nrf52840.o(i.nrf53_errata_6), (4 bytes).
    Removing system_nrf52840.o(i.nrf53_errata_62), (4 bytes).
    Removing system_nrf52840.o(i.nrf53_errata_64), (4 bytes).
    Removing system_nrf52840.o(i.nrf53_errata_65), (4 bytes).
    Removing system_nrf52840.o(i.nrf53_errata_66), (4 bytes).
    Removing system_nrf52840.o(i.nrf53_errata_67), (4 bytes).
    Removing system_nrf52840.o(i.nrf53_errata_69), (4 bytes).
    Removing system_nrf52840.o(i.nrf53_errata_7), (4 bytes).
    Removing system_nrf52840.o(i.nrf53_errata_70), (4 bytes).
    Removing system_nrf52840.o(i.nrf53_errata_71), (4 bytes).
    Removing system_nrf52840.o(i.nrf53_errata_72), (4 bytes).
    Removing system_nrf52840.o(i.nrf53_errata_73), (4 bytes).
    Removing system_nrf52840.o(i.nrf53_errata_74), (4 bytes).
    Removing system_nrf52840.o(i.nrf53_errata_75), (4 bytes).
    Removing system_nrf52840.o(i.nrf53_errata_76), (4 bytes).
    Removing system_nrf52840.o(i.nrf53_errata_77), (4 bytes).
    Removing system_nrf52840.o(i.nrf53_errata_79), (4 bytes).
    Removing system_nrf52840.o(i.nrf53_errata_8), (4 bytes).
    Removing system_nrf52840.o(i.nrf53_errata_80), (4 bytes).
    Removing system_nrf52840.o(i.nrf53_errata_81), (4 bytes).
    Removing system_nrf52840.o(i.nrf53_errata_82), (4 bytes).
    Removing system_nrf52840.o(i.nrf53_errata_83), (4 bytes).
    Removing system_nrf52840.o(i.nrf53_errata_84), (4 bytes).
    Removing system_nrf52840.o(i.nrf53_errata_85), (4 bytes).
    Removing system_nrf52840.o(i.nrf53_errata_86), (4 bytes).
    Removing system_nrf52840.o(i.nrf53_errata_87), (4 bytes).
    Removing system_nrf52840.o(i.nrf53_errata_9), (4 bytes).
    Removing system_nrf52840.o(i.nrf53_errata_90), (4 bytes).
    Removing system_nrf52840.o(i.nrf53_errata_91), (4 bytes).
    Removing system_nrf52840.o(i.nrf53_errata_93), (4 bytes).
    Removing system_nrf52840.o(i.nrf53_errata_95), (4 bytes).
    Removing system_nrf52840.o(i.nrf53_errata_97), (4 bytes).
    Removing system_nrf52840.o(i.nrf91_errata_1), (4 bytes).
    Removing system_nrf52840.o(i.nrf91_errata_10), (4 bytes).
    Removing system_nrf52840.o(i.nrf91_errata_12), (4 bytes).
    Removing system_nrf52840.o(i.nrf91_errata_14), (4 bytes).
    Removing system_nrf52840.o(i.nrf91_errata_15), (4 bytes).
    Removing system_nrf52840.o(i.nrf91_errata_16), (4 bytes).
    Removing system_nrf52840.o(i.nrf91_errata_17), (4 bytes).
    Removing system_nrf52840.o(i.nrf91_errata_2), (4 bytes).
    Removing system_nrf52840.o(i.nrf91_errata_20), (4 bytes).
    Removing system_nrf52840.o(i.nrf91_errata_21), (4 bytes).
    Removing system_nrf52840.o(i.nrf91_errata_23), (4 bytes).
    Removing system_nrf52840.o(i.nrf91_errata_24), (4 bytes).
    Removing system_nrf52840.o(i.nrf91_errata_26), (4 bytes).
    Removing system_nrf52840.o(i.nrf91_errata_27), (4 bytes).
    Removing system_nrf52840.o(i.nrf91_errata_28), (4 bytes).
    Removing system_nrf52840.o(i.nrf91_errata_29), (4 bytes).
    Removing system_nrf52840.o(i.nrf91_errata_30), (4 bytes).
    Removing system_nrf52840.o(i.nrf91_errata_31), (4 bytes).
    Removing system_nrf52840.o(i.nrf91_errata_32), (4 bytes).
    Removing system_nrf52840.o(i.nrf91_errata_33), (4 bytes).
    Removing system_nrf52840.o(i.nrf91_errata_4), (4 bytes).
    Removing system_nrf52840.o(i.nrf91_errata_6), (4 bytes).
    Removing system_nrf52840.o(i.nrf91_errata_7), (4 bytes).
    Removing system_nrf52840.o(i.nrf91_errata_8), (4 bytes).
    Removing system_nrf52840.o(i.nrf91_errata_9), (4 bytes).
    Removing epdtest.o(.ARM.exidx), (8 bytes).
    Removing adafruit_epd.o(.constdata__ZTI12Adafruit_EPD), (12 bytes).
    Removing adafruit_epd.o(.constdata__ZTS12Adafruit_EPD), (15 bytes).
    Removing adafruit_gfx.o(.constdata__ZTV10GFXcanvas1), (76 bytes).
    Removing adafruit_gfx.o(.constdata__ZTV10GFXcanvas8), (76 bytes).
    Removing adafruit_gfx.o(.constdata__ZTV11GFXcanvas16), (76 bytes).
    Removing adafruit_gfx.o(i._Z18pgm_read_glyph_ptrPK7GFXfonth), (10 bytes).
    Removing adafruit_gfx.o(.ARM.exidx), (8 bytes).
    Removing adafruit_gfx.o(i._ZNK12Adafruit_GFX5widthEv), (8 bytes).
    Removing adafruit_gfx.o(.ARM.exidx), (8 bytes).
    Removing adafruit_gfx.o(i._ZNK12Adafruit_GFX6heightEv), (8 bytes).
    Removing adafruit_gfx.o(.ARM.exidx), (8 bytes).
    Removing adafruit_gfx.o(i._ZNK12Adafruit_GFX11getRotationEv), (6 bytes).
    Removing adafruit_gfx.o(.ARM.exidx), (8 bytes).
    Removing adafruit_gfx.o(i._ZNK10GFXcanvas19getBufferEv), (6 bytes).
    Removing adafruit_gfx.o(.ARM.exidx), (8 bytes).
    Removing adafruit_gfx.o(.constdata__ZTI12Adafruit_GFX), (12 bytes).
    Removing adafruit_gfx.o(.constdata__ZTI10GFXcanvas1), (12 bytes).
    Removing adafruit_gfx.o(.constdata__ZTI10GFXcanvas8), (12 bytes).
    Removing adafruit_gfx.o(.constdata__ZTI11GFXcanvas16), (12 bytes).
    Removing adafruit_gfx.o(.constdata__ZTI5Print), (8 bytes).
    Removing adafruit_gfx.o(.constdata__ZTS12Adafruit_GFX), (15 bytes).
    Removing adafruit_gfx.o(.constdata__ZTS10GFXcanvas1), (13 bytes).
    Removing adafruit_gfx.o(.constdata__ZTS10GFXcanvas8), (13 bytes).
    Removing adafruit_gfx.o(.constdata__ZTS11GFXcanvas16), (14 bytes).
    Removing adafruit_gfx.o(.constdata__ZTS5Print), (7 bytes).
    Removing adafruit_spitft.o(.constdata__ZTV15Adafruit_SPITFT), (84 bytes).
    Removing adafruit_spitft.o(i._ZN15Adafruit_SPITFT13TFT_WR_STROBEEv), (26 bytes).
    Removing adafruit_spitft.o(.ARM.exidx), (8 bytes).
    Removing adafruit_spitft.o(i._ZN15Adafruit_SPITFT23writeFillRectPreclippedEsssst), (54 bytes).
    Removing adafruit_spitft.o(.ARM.exidx), (8 bytes).
    Removing adafruit_spitft.o(i._ZN15Adafruit_SPITFT10SPI_CS_LOWEv), (16 bytes).
    Removing adafruit_spitft.o(.ARM.exidx), (8 bytes).
    Removing adafruit_spitft.o(i._ZN15Adafruit_SPITFT21SPI_BEGIN_TRANSACTIONEv), (20 bytes).
    Removing adafruit_spitft.o(.ARM.exidx), (8 bytes).
    Removing adafruit_spitft.o(i._ZN15Adafruit_SPITFT11SPI_CS_HIGHEv), (16 bytes).
    Removing adafruit_spitft.o(.ARM.exidx), (8 bytes).
    Removing adafruit_spitft.o(i._ZN15Adafruit_SPITFT11SPI_SCK_LOWEv), (16 bytes).
    Removing adafruit_spitft.o(.ARM.exidx), (8 bytes).
    Removing adafruit_spitft.o(i._ZN15Adafruit_SPITFT12SPI_SCK_HIGHEv), (16 bytes).
    Removing adafruit_spitft.o(.ARM.exidx), (8 bytes).
    Removing adafruit_spitft.o(i._ZN15Adafruit_SPITFT12SPI_MOSI_LOWEv), (16 bytes).
    Removing adafruit_spitft.o(.ARM.exidx), (8 bytes).
    Removing adafruit_spitft.o(i._ZN15Adafruit_SPITFT13SPI_MOSI_HIGHEv), (16 bytes).
    Removing adafruit_spitft.o(.ARM.exidx), (8 bytes).
    Removing adafruit_spitft.o(i._ZN15Adafruit_SPITFT11SPI_DC_HIGHEv), (16 bytes).
    Removing adafruit_spitft.o(.ARM.exidx), (8 bytes).
    Removing adafruit_spitft.o(i._ZN15Adafruit_SPITFT10SPI_DC_LOWEv), (16 bytes).
    Removing adafruit_spitft.o(.ARM.exidx), (8 bytes).
    Removing adafruit_spitft.o(i._ZN15Adafruit_SPITFT14writeFastHLineEssst), (116 bytes).
    Removing adafruit_spitft.o(.ARM.exidx), (8 bytes).
    Removing adafruit_spitft.o(i._ZN15Adafruit_SPITFT14writeFastVLineEssst), (114 bytes).
    Removing adafruit_spitft.o(.ARM.exidx), (8 bytes).
    Removing adafruit_spitft.o(.constdata__ZTI15Adafruit_SPITFT), (12 bytes).
    Removing adafruit_spitft.o(.constdata__ZTS15Adafruit_SPITFT), (18 bytes).
    Removing adafruit_il0373.o(.constdata__ZTI15Adafruit_IL0373), (12 bytes).
    Removing adafruit_il0373.o(.constdata__ZTS15Adafruit_IL0373), (18 bytes).
    Removing adafruit_il0398.o(.constdata__ZTV15Adafruit_IL0398), (100 bytes).
    Removing adafruit_il0398.o(.constdata__ZTI15Adafruit_IL0398), (12 bytes).
    Removing adafruit_il0398.o(.constdata__ZTS15Adafruit_IL0398), (18 bytes).
    Removing adafruit_il91874.o(.constdata__ZTV16Adafruit_IL91874), (100 bytes).
    Removing adafruit_il91874.o(.constdata__ZTI16Adafruit_IL91874), (12 bytes).
    Removing adafruit_il91874.o(.constdata__ZTS16Adafruit_IL91874), (19 bytes).
    Removing adafruit_ssd1608.o(.constdata__ZTV16Adafruit_SSD1608), (100 bytes).
    Removing adafruit_ssd1608.o(.constdata__ZTI16Adafruit_SSD1608), (12 bytes).
    Removing adafruit_ssd1608.o(.constdata__ZTS16Adafruit_SSD1608), (19 bytes).
    Removing adafruit_ssd1619.o(.constdata__ZTV16Adafruit_SSD1619), (100 bytes).
    Removing adafruit_ssd1619.o(.constdata__ZTI16Adafruit_SSD1619), (12 bytes).
    Removing adafruit_ssd1619.o(.constdata__ZTS16Adafruit_SSD1619), (19 bytes).
    Removing adafruit_ssd1675.o(.constdata__ZTV16Adafruit_SSD1675), (100 bytes).
    Removing adafruit_ssd1675.o(.constdata__ZTI16Adafruit_SSD1675), (12 bytes).
    Removing adafruit_ssd1675.o(.constdata__ZTS16Adafruit_SSD1675), (19 bytes).
    Removing adafruit_ssd1675b.o(.constdata__ZTV17Adafruit_SSD1675B), (100 bytes).
    Removing adafruit_ssd1675b.o(.constdata__ZTI17Adafruit_SSD1675B), (12 bytes).
    Removing adafruit_ssd1675b.o(.constdata__ZTS17Adafruit_SSD1675B), (20 bytes).
    Removing adafruit_ssd1680.o(.constdata__ZTV16Adafruit_SSD1680), (100 bytes).
    Removing adafruit_ssd1680.o(.constdata__ZTI16Adafruit_SSD1680), (12 bytes).
    Removing adafruit_ssd1680.o(.constdata__ZTS16Adafruit_SSD1680), (19 bytes).
    Removing adafruit_ssd1681.o(.constdata__ZTV16Adafruit_SSD1681), (100 bytes).
    Removing adafruit_ssd1681.o(.constdata__ZTI16Adafruit_SSD1681), (12 bytes).
    Removing adafruit_ssd1681.o(.constdata__ZTS16Adafruit_SSD1681), (19 bytes).

892 unused section(s) (total 34931 bytes) removed from the image.
